ASxxxx Linker V03.00 + NoICE + sdld,  page 1.
Hexadecimal  [32-Bits]

Area                                    Addr        Size        Decimal Bytes (Attributes)
--------------------------------        ----        ----        ------- ----- ------------
.  .ABS.                            00000000    00000000 =           0. bytes (ABS,CON)

      Value  Global                              Global Defined In Module
      -----  --------------------------------   ------------------------
     00000000  .__.ABS.                           
     00000000  _rRAMG                             
     00000000  l__BASE                         
     00000000  l__BSS                          
     00000000  l__CABS                         
     00000000  l__CODE_0                       
     00000000  l__CRASH_HEADER                 
     00000000  l__CRASH_SCRATCH                
     00000000  l__DABS                         
     00000000  l__HEADER                       
     00000000  l__HEADER_LCD                   
     00000000  l__HEADER_SIO                   
     00000000  l__HEADER_TIMER                 
     00000000  l__HEAP                         
     00000000  l__HRAM                         
     00000000  l__LIT                          
     00000000  s__CABS                         
     00000000  s__CRASH_HEADER                 
     00000000  s__CRASH_HEADER0                
     00000000  s__CRASH_HEADER1                
     00000000  s__CRASH_SCRATCH                
     00000000  s__CRASH_SCRATCH2               
     00000000  s__DABS                         
     00000000  s__HEADER                       
     00000000  s__HEADER0                      
     00000000  s__HEADER1                      
     00000000  s__HEADER10                     
     00000000  s__HEADER11                     
     00000000  s__HEADER2                      
     00000000  s__HEADER3                      
     00000000  s__HEADER4                      
     00000000  s__HEADER5                      
     00000000  s__HEADER6                      
     00000000  s__HEADER7                      
     00000000  s__HEADER8                      
     00000000  s__HEADER9                      
     00000000  s__HEADER_LCD                   
     00000000  s__HEADER_LCD0                  
     00000000  s__HEADER_SIO                   
     00000000  s__HEADER_SIO0                  
     00000000  s__HEADER_TIMER                 
     00000000  s__HEADER_TIMER0                
     00000000  s__HEADERa                      
     00000000  s__HEADERb                      
     00000000  s__HEADERc                      
     00000000  s__HEADERd                      
     00000000  s__HEADERe                      
     00000000  s__HEADERf                      
     00000000  s__HRAM                         
     00000000  s__HRAM12                       
ASxxxx Linker V03.00 + NoICE + sdld,  page 2.
Hexadecimal  [32-Bits]

Area                                    Addr        Size        Decimal Bytes (Attributes)
--------------------------------        ----        ----        ------- ----- ------------
.  .ABS.                            00000000    00000000 =           0. bytes (ABS,CON)

      Value  Global                              Global Defined In Module
      -----  --------------------------------   ------------------------
     00000001  b_activate_actor                   actor
     00000001  b_activate_actors_in_col           actor
     00000001  b_activate_actors_in_row           actor
     00000001  b_actor_at_tile                    actor
     00000001  b_actor_get_frame_offset           actor
     00000001  b_actor_in_front_of_player         actor
     00000001  b_actor_overlapping_bb             actor
     00000001  b_actor_overlapping_player         actor
     00000001  b_actor_set_anim_idle              actor
     00000001  b_actor_set_anim_moving            actor
     00000001  b_actor_set_dir                    actor
     00000001  b_actor_set_frame_offset           actor
     00000001  b_actor_set_frames                 actor
     00000001  b_actors_handle_player_collision   actor
     00000001  b_actors_init                      actor
     00000001  b_camera_init                      camera
     00000001  b_camera_reset                     camera
     00000001  b_check_collision_in_direction     actor
     00000001  b_deactivate_actor                 actor
     00000001  b_parallax_init                    parallax
     00000001  b_player_init                      actor
     00000001  b_remove_LCD_ISRs                  interrupts
     00000001  b_scroll_init                      scroll
     00000001  b_scroll_repaint                   scroll
     00000001  b_scroll_reset                     scroll
     00000001  b_scroll_update                    scroll
     00000001  b_ui_draw_frame                    ui
     00000001  b_ui_draw_text_buffer_char         ui
     00000001  b_ui_init                          ui
     00000001  b_ui_load_tiles                    ui
     00000001  b_ui_run_menu                      ui
     00000001  b_ui_run_modal                     ui
     00000001  l__GSFINAL                      
     00000001  l__HEADER0                      
     00000001  l__HEADER11                     
     00000001  l__HEADER9                      
     00000001  l__HEADERa                      
     00000001  l__HEADERb                      
     00000001  l__HEADERd                      
     00000001  l__HEADERe                      
     00000002  b_camera_shake_frames              vm_camera
     00000002  b_itoa_fmt                         vm_ui_a
     00000002  b_script_execute                   vm
     00000002  b_script_runner_init               vm
     00000002  b_script_terminate                 vm
     00000002  b_scroll_rect                      
     00000002  b_vm_actor_activate                vm_actor
     00000002  b_vm_actor_deactivate              vm_actor
     00000002  b_vm_actor_emote                   vm_actor
     00000002  b_vm_actor_get_angle               vm_actor
     00000002  b_vm_actor_get_anim_frame          vm_actor
ASxxxx Linker V03.00 + NoICE + sdld,  page 3.
Hexadecimal  [32-Bits]

Area                                    Addr        Size        Decimal Bytes (Attributes)
--------------------------------        ----        ----        ------- ----- ------------
.  .ABS.                            00000000    00000000 =           0. bytes (ABS,CON)

      Value  Global                              Global Defined In Module
      -----  --------------------------------   ------------------------
     00000002  b_vm_actor_get_dir                 vm_actor
     00000002  b_vm_actor_get_pos                 vm_actor
     00000002  b_vm_actor_move_to                 vm_actor
     00000002  b_vm_actor_replace_tile            vm_actor
     00000002  b_vm_actor_set_anim                vm_actor
     00000002  b_vm_actor_set_anim_frame          vm_actor
     00000002  b_vm_actor_set_anim_set            vm_actor
     00000002  b_vm_actor_set_anim_tick           vm_actor
     00000002  b_vm_actor_set_bounds              vm_actor
     00000002  b_vm_actor_set_coll_enabled        vm_actor
     00000002  b_vm_actor_set_dir                 vm_actor
     00000002  b_vm_actor_set_hidden              vm_actor
     00000002  b_vm_actor_set_move_speed          vm_actor
     00000002  b_vm_actor_set_pos                 vm_actor
     00000002  b_vm_actor_set_spritesheet         vm_actor
     00000002  b_vm_actor_set_spritesheet_by_re   vm_actor
     00000002  b_vm_actor_terminate_update        vm_actor
     00000002  b_vm_call                          vm
     00000002  b_vm_call_far                      vm
     00000002  b_vm_call_rel                      vm
     00000002  b_vm_camera_move_to                vm_camera
     00000002  b_vm_camera_set_pos                vm_camera
     00000002  b_vm_choice                        vm_ui
     00000002  b_vm_context_prepare               vm_gameboy
     00000002  b_vm_cos_scale                     vm_math
     00000002  b_vm_display_text                  vm_ui
     00000002  b_vm_fade_in                       vm_gameboy
     00000002  b_vm_fade_out                      vm_gameboy
     00000002  b_vm_get_indirect                  vm
     00000002  b_vm_get_int16                     vm
     00000002  b_vm_get_int8                      vm
     00000002  b_vm_get_tile_xy                   vm_gameboy
     00000002  b_vm_get_tlocal                    vm
     00000002  b_vm_get_uint8                     vm
     00000002  b_vm_hide_sprites                  vm_gameboy
     00000002  b_vm_idle                          vm
     00000002  b_vm_if                            vm
     00000002  b_vm_if_const                      vm
     00000002  b_vm_input_attach                  vm_gameboy
     00000002  b_vm_input_detach                  vm_gameboy
     00000002  b_vm_input_get                     vm_gameboy
     00000002  b_vm_input_wait                    vm_gameboy
     00000002  b_vm_invoke                        vm
     00000002  b_vm_join                          vm
     00000002  b_vm_jump                          vm
     00000002  b_vm_jump_rel                      vm
     00000002  b_vm_load_cursor                   vm_ui
     00000002  b_vm_load_frame                    vm_ui
     00000002  b_vm_load_palette                  vm_palette
     00000002  b_vm_lock                          vm
     00000002  b_vm_loop                          vm
ASxxxx Linker V03.00 + NoICE + sdld,  page 4.
Hexadecimal  [32-Bits]

Area                                    Addr        Size        Decimal Bytes (Attributes)
--------------------------------        ----        ----        ------- ----- ------------
.  .ABS.                            00000000    00000000 =           0. bytes (ABS,CON)

      Value  Global                              Global Defined In Module
      -----  --------------------------------   ------------------------
     00000002  b_vm_loop_rel                      vm
     00000002  b_vm_memcpy                        vm
     00000002  b_vm_memset                        vm
     00000002  b_vm_music_mute                    vm_music
     00000002  b_vm_music_play                    vm_music
     00000002  b_vm_music_routine                 vm_music
     00000002  b_vm_music_setpos                  vm_music
     00000002  b_vm_music_stop                    vm_music
     00000002  b_vm_overlay_clear                 vm_ui
     00000002  b_vm_overlay_hide                  vm_ui
     00000002  b_vm_overlay_move_to               vm_ui
     00000002  b_vm_overlay_scroll                vm_ui
     00000002  b_vm_overlay_set_scroll            vm_ui
     00000002  b_vm_overlay_set_submap            vm_ui
     00000002  b_vm_overlay_setpos                vm_ui
     00000002  b_vm_overlay_show                  vm_ui
     00000002  b_vm_overlay_wait                  vm_ui
     00000002  b_vm_poll                          vm_gameboy
     00000002  b_vm_poll_loaded                   vm
     00000002  b_vm_pop                           vm
     00000002  b_vm_projectile_launch             vm_projectiles
     00000002  b_vm_push                          vm
     00000002  b_vm_push_reference                vm
     00000002  b_vm_push_value                    vm
     00000002  b_vm_push_value_ind                vm
     00000002  b_vm_raise                         vm
     00000002  b_vm_rand                          vm
     00000002  b_vm_randomize                     vm
     00000002  b_vm_replace_tile                  vm_gameboy
     00000002  b_vm_replace_tile_xy               vm_gameboy
     00000002  b_vm_reserve                       vm
     00000002  b_vm_ret                           vm
     00000002  b_vm_ret_far                       vm
     00000002  b_vm_rtc_get                       vm_rtc
     00000002  b_vm_rtc_latch                     vm_rtc
     00000002  b_vm_rtc_set                       vm_rtc
     00000002  b_vm_rtc_start                     vm_rtc
     00000002  b_vm_rumble                        vm_gameboy
     00000002  b_vm_save_clear                    vm_load_save
     00000002  b_vm_save_peek                     vm_load_save
     00000002  b_vm_scene_pop                     vm_scene
     00000002  b_vm_scene_pop_all                 vm_scene
     00000002  b_vm_scene_push                    vm_scene
     00000002  b_vm_scene_stack_reset             vm_scene
     00000002  b_vm_set                           vm
     00000002  b_vm_set_const                     vm
     00000002  b_vm_set_const_int16               vm
     00000002  b_vm_set_const_int8                vm
     00000002  b_vm_set_font                      vm_ui
     00000002  b_vm_set_indirect                  vm
     00000002  b_vm_set_int16                     vm
ASxxxx Linker V03.00 + NoICE + sdld,  page 5.
Hexadecimal  [32-Bits]

Area                                    Addr        Size        Decimal Bytes (Attributes)
--------------------------------        ----        ----        ------- ----- ------------
.  .ABS.                            00000000    00000000 =           0. bytes (ABS,CON)

      Value  Global                              Global Defined In Module
      -----  --------------------------------   ------------------------
     00000002  b_vm_set_int8                      vm
     00000002  b_vm_set_print_dir                 vm_ui
     00000002  b_vm_set_sprite_mode               vm_gameboy
     00000002  b_vm_set_uint8                     vm
     00000002  b_vm_show_sprites                  vm_gameboy
     00000002  b_vm_sin_scale                     vm_math
     00000002  b_vm_sio_exchange                  vm_sio
     00000002  b_vm_sio_set_mode                  vm_sio
     00000002  b_vm_sound_mastervol               vm_music
     00000002  b_vm_sound_play                    vm_music
     00000002  b_vm_switch_text_layer             vm_ui
     00000002  b_vm_systime                       vm
     00000002  b_vm_terminate                     vm
     00000002  b_vm_test_terminate                vm
     00000002  b_vm_timer_prepare                 vm_gameboy
     00000002  b_vm_timer_reset                   vm_gameboy
     00000002  b_vm_timer_set                     vm_gameboy
     00000002  b_vm_timer_stop                    vm_gameboy
     00000002  b_vm_unlock                        vm
     00000002  b_vm_wave_play                     vm_music
     00000002  b_wait_frames                      vm
     00000002  l__HEADER5                      
     00000002  l__HEADERc                      
     00000002  l__HEADERf                      
     00000003  b_adventure_init                   adventure
     00000003  b_adventure_update                 adventure
     00000003  b_logo_init                        logo
     00000003  b_logo_update                      logo
     00000003  b_platform_init                    platform
     00000003  b_platform_update                  platform
     00000003  b_pointnclick_init                 pointnclick
     00000003  b_pointnclick_update               pointnclick
     00000003  b_shmup_init                       shmup
     00000003  b_shmup_update                     shmup
     00000003  b_topdown_init                     topdown
     00000003  b_topdown_update                   topdown
     00000003  l__HEADER8                      
     00000003  l__HEADER_LCD0                  
     00000003  l__HRAM12                       
     00000004  b_CGBZeroPalette                   palette
     00000004  b_SIO_init                         sio
     00000004  b_core_reset                       core
     00000004  b_core_run                         core
     00000004  b_data_clear                       load_save
     00000004  b_data_init                        load_save
     00000004  b_data_load                        load_save
     00000004  b_data_peek                        load_save
     00000004  b_data_save                        load_save
     00000004  b_do_load_palette                  data_manager
     00000004  b_events_init                      events
     00000004  b_fade_applypalettechange          fade_manager
ASxxxx Linker V03.00 + NoICE + sdld,  page 6.
Hexadecimal  [32-Bits]

Area                                    Addr        Size        Decimal Bytes (Attributes)
--------------------------------        ----        ----        ------- ----- ------------
.  .ABS.                            00000000    00000000 =           0. bytes (ABS,CON)

      Value  Global                              Global Defined In Module
      -----  --------------------------------   ------------------------
     00000004  b_fade_in                          fade_manager
     00000004  b_fade_in_modal                    fade_manager
     00000004  b_fade_init                        fade_manager
     00000004  b_fade_out                         fade_manager
     00000004  b_fade_out_modal                   fade_manager
     00000004  b_fade_setspeed                    fade_manager
     00000004  b_fade_update                      fade_manager
     00000004  b_input_init                       input
     00000004  b_load_background                  data_manager
     00000004  b_load_bkg_tileset                 data_manager
     00000004  b_load_bounds                      data_manager
     00000004  b_load_emote                       data_manager
     00000004  b_load_init                        data_manager
     00000004  b_load_player                      data_manager
     00000004  b_load_scene                       data_manager
     00000004  b_load_sprite                      data_manager
     00000004  b_music_events_poll                music_manager
     00000004  b_music_init                       music_manager
     00000004  b_music_stop                       music_manager
     00000004  b_palette_init                     palette
     00000004  b_projectile_launch                projectiles
     00000004  b_projectiles_init                 projectiles
     00000004  b_restore_sram                     flasher
     00000004  b_restore_sram_bank                flasher
     00000004  b_save_sram                        flasher
     00000004  b_set_sample                       sample_player
     00000004  b_set_sgb_border                   sgb_border
     00000004  b_sound_init                       music_manager
     00000004  b_sound_play                       music_manager
     00000004  b_timers_init                      events
     00000004  b_trigger_activate_at              trigger
     00000004  b_trigger_activate_at_intersecti   trigger
     00000004  b_trigger_at_intersection          trigger
     00000004  b_trigger_at_tile                  trigger
     00000004  b_trigger_interact                 trigger
     00000004  b_trigger_reset                    trigger
     00000004  b_wave_play                        music_manager
     00000004  l__CRASH_HEADER1                
     00000004  l__HEADER_SIO0                  
     00000004  l__HEADER_TIMER0                
     00000005  ___bank_scene_10_collisions        scene_10_collisions
     00000005  ___bank_scene_12_collisions        scene_12_collisions
     00000005  ___bank_scene_14_collisions        scene_14_collisions
     00000005  ___bank_scene_16_collisions        scene_16_collisions
     00000005  ___bank_scene_43_sprites           scene_43_sprites
     00000005  ___bank_script_s43a6_update        script_s43a6_update
     00000005  l__CRASH_HEADER0                
     00000005  l__HEADER1                      
     00000006  ___bank_scene_10_sprites           scene_10_sprites
     00000006  ___bank_scene_18_collisions        scene_18_collisions
     00000006  ___bank_scene_22_collisions        scene_22_collisions
ASxxxx Linker V03.00 + NoICE + sdld,  page 7.
Hexadecimal  [32-Bits]

Area                                    Addr        Size        Decimal Bytes (Attributes)
--------------------------------        ----        ----        ------- ----- ------------
.  .ABS.                            00000000    00000000 =           0. bytes (ABS,CON)

      Value  Global                              Global Defined In Module
      -----  --------------------------------   ------------------------
     00000006  ___bank_scene_24_collisions        scene_24_collisions
     00000006  ___bank_scene_26_collisions        scene_26_collisions
     00000006  ___bank_tileset_59                 tileset_59
     00000006  l__HEADER7                      
     00000007  ___bank_scene_30_collisions        scene_30_collisions
     00000007  ___bank_scene_32_collisions        scene_32_collisions
     00000007  ___bank_scene_34_collisions        scene_34_collisions
     00000007  ___bank_scene_8_collisions         scene_8_collisions
     00000007  ___bank_script_input_10            script_input_10
     00000007  ___bank_spritesheet_47             spritesheet_47
     00000007  l__HEADER2                      
     00000008  ___bank_script_input_11            script_input_11
     00000008  ___bank_spritesheet_49             spritesheet_49
     00000008  ___bank_tilemap_28                 tilemap_28
     00000008  ___bank_tilemap_29                 tilemap_29
     00000008  ___bank_tilemap_30                 tilemap_30
     00000008  ___bank_tilemap_31                 tilemap_31
     00000008  l__HEADER3                      
     00000009  ___bank_script_input_13            script_input_13
     00000009  ___bank_spritesheet_59             spritesheet_59
     00000009  ___bank_tilemap_32                 tilemap_32
     00000009  ___bank_tilemap_33                 tilemap_33
     00000009  ___bank_tilemap_34                 tilemap_34
     00000009  ___bank_tilemap_35                 tilemap_35
     0000000A  ___bank_script_engine_init         
     0000000A  ___bank_script_input_14            script_input_14
     0000000A  ___bank_tilemap_36                 tilemap_36
     0000000A  ___bank_tilemap_37                 tilemap_37
     0000000A  ___bank_tilemap_38                 tilemap_38
     0000000A  ___bank_tilemap_39                 tilemap_39
     0000000B  ___bank_script_input_3             script_input_3
     0000000B  ___bank_script_s10a11_update       script_s10a11_update
     0000000B  ___bank_tilemap_attr_14            tilemap_attr_14
     0000000B  ___bank_tilemap_attr_15            tilemap_attr_15
     0000000B  ___bank_tilemap_attr_16            tilemap_attr_16
     0000000B  ___bank_tilemap_attr_17            tilemap_attr_17
     0000000C  ___bank_script_input_5             script_input_5
     0000000C  ___bank_script_s10a13_update       script_s10a13_update
     0000000C  ___bank_tilemap_attr_18            tilemap_attr_18
     0000000C  ___bank_tilemap_attr_19            tilemap_attr_19
     0000000C  ___bank_tilemap_attr_20            tilemap_attr_20
     0000000C  ___bank_tilemap_attr_21            tilemap_attr_21
     0000000D  ___bank_font_0                     font_0
     0000000D  ___bank_scene_20_sprites           scene_20_sprites
     0000000D  ___bank_scene_8_actors             scene_8_actors
     0000000D  ___bank_tilemap_attr_22            tilemap_attr_22
     0000000D  ___bank_tilemap_attr_23            tilemap_attr_23
     0000000D  ___bank_tilemap_attr_24            tilemap_attr_24
     0000000E  ___bank_tileset_10                 tileset_10
     0000000E  ___bank_tileset_11                 tileset_11
     0000000E  ___bank_tileset_35                 tileset_35
ASxxxx Linker V03.00 + NoICE + sdld,  page 8.
Hexadecimal  [32-Bits]

Area                                    Addr        Size        Decimal Bytes (Attributes)
--------------------------------        ----        ----        ------- ----- ------------
.  .ABS.                            00000000    00000000 =           0. bytes (ABS,CON)

      Value  Global                              Global Defined In Module
      -----  --------------------------------   ------------------------
     0000000E  ___bank_tileset_4                  tileset_4
     0000000E  ___bank_tileset_7                  tileset_7
     0000000E  ___bank_tileset_8                  tileset_8
     0000000E  ___bank_tileset_9                  tileset_9
     0000000E  l__INITIALIZED                  
     0000000E  l__INITIALIZER                  
     0000000F  ___bank_miau                       miau
     0000000F  ___bank_scene_44_sprites           scene_44_sprites
     0000000F  ___bank_scene_45_collisions        scene_45_collisions
     0000000F  ___bank_tilemap_5                  tilemap_5
     0000000F  ___bank_tileset_12                 tileset_12
     0000000F  ___bank_tileset_13                 tileset_13
     0000000F  ___bank_tileset_17                 tileset_17
     0000000F  ___bank_tileset_32                 tileset_32
     0000000F  ___bank_tileset_6                  tileset_6
     00000010  ___bank_scene_10_actors            scene_10_actors
     00000010  ___bank_scene_14_actors            scene_14_actors
     00000010  ___bank_scene_16_actors            scene_16_actors
     00000010  ___bank_scene_18_actors            scene_18_actors
     00000010  ___bank_scene_2_sprites            scene_2_sprites
     00000010  ___bank_script_s3a0_update         script_s3a0_update
     00000010  ___bank_tilemap_attr_4             tilemap_attr_4
     00000010  ___bank_tileset_0                  tileset_0
     00000010  ___bank_tileset_1                  tileset_1
     00000010  ___bank_tileset_14                 tileset_14
     00000010  ___bank_tileset_16                 tileset_16
     00000010  ___bank_tileset_2                  tileset_2
     00000010  ___bank_tileset_3                  tileset_3
     00000010  ___bank_tileset_5                  tileset_5
     00000011  ___bank_scene_0_collisions         scene_0_collisions
     00000011  ___bank_scene_11_collisions        scene_11_collisions
     00000011  ___bank_scene_12_actors            scene_12_actors
     00000011  ___bank_scene_13_collisions        scene_13_collisions
     00000011  ___bank_scene_15_collisions        scene_15_collisions
     00000011  ___bank_scene_17_collisions        scene_17_collisions
     00000011  ___bank_scene_19_collisions        scene_19_collisions
     00000011  ___bank_scene_1_collisions         scene_1_collisions
     00000011  ___bank_scene_22_actors            scene_22_actors
     00000011  ___bank_scene_24_actors            scene_24_actors
     00000011  ___bank_scene_26_actors            scene_26_actors
     00000011  ___bank_scene_2_collisions         scene_2_collisions
     00000011  ___bank_scene_30_actors            scene_30_actors
     00000011  ___bank_scene_32_actors            scene_32_actors
     00000011  ___bank_scene_34_actors            scene_34_actors
     00000011  ___bank_scene_3_sprites            scene_3_sprites
     00000011  ___bank_script_input_15            script_input_15
     00000011  ___bank_script_input_2             script_input_2
     00000011  ___bank_script_input_4             script_input_4
     00000011  ___bank_script_input_6             script_input_6
     00000011  ___bank_script_input_7             script_input_7
     00000011  ___bank_script_input_9             script_input_9
ASxxxx Linker V03.00 + NoICE + sdld,  page 9.
Hexadecimal  [32-Bits]

Area                                    Addr        Size        Decimal Bytes (Attributes)
--------------------------------        ----        ----        ------- ----- ------------
.  .ABS.                            00000000    00000000 =           0. bytes (ABS,CON)

      Value  Global                              Global Defined In Module
      -----  --------------------------------   ------------------------
     00000011  ___bank_script_s32a12_interact     script_s32a12_interact
     00000011  ___bank_script_s36a0_interact      script_s36a0_interact
     00000011  ___bank_tileset_15                 tileset_15
     00000011  ___bank_tileset_45                 tileset_45
     00000011  ___bank_tileset_51                 tileset_51
     00000011  ___bank_tileset_64                 tileset_64
     00000011  ___bank_tileset_70                 tileset_70
     00000011  ___bank_tileset_75                 tileset_75
     00000012  ___bank_scene_20_collisions        scene_20_collisions
     00000012  ___bank_scene_21_collisions        scene_21_collisions
     00000012  ___bank_scene_23_collisions        scene_23_collisions
     00000012  ___bank_scene_25_collisions        scene_25_collisions
     00000012  ___bank_scene_27_collisions        scene_27_collisions
     00000012  ___bank_scene_28_collisions        scene_28_collisions
     00000012  ___bank_scene_29_collisions        scene_29_collisions
     00000012  ___bank_scene_31_collisions        scene_31_collisions
     00000012  ___bank_scene_33_collisions        scene_33_collisions
     00000012  ___bank_scene_35_collisions        scene_35_collisions
     00000012  ___bank_scene_36_collisions        scene_36_collisions
     00000012  ___bank_scene_37_collisions        scene_37_collisions
     00000012  ___bank_scene_38_collisions        scene_38_collisions
     00000012  ___bank_scene_39_collisions        scene_39_collisions
     00000012  ___bank_scene_3_collisions         scene_3_collisions
     00000012  ___bank_scene_40_collisions        scene_40_collisions
     00000012  ___bank_scene_41_collisions        scene_41_collisions
     00000012  ___bank_scene_42_collisions        scene_42_collisions
     00000012  ___bank_scene_43_collisions        scene_43_collisions
     00000012  ___bank_scene_44_collisions        scene_44_collisions
     00000012  ___bank_scene_4_collisions         scene_4_collisions
     00000012  ___bank_scene_5_collisions         scene_5_collisions
     00000012  ___bank_scene_6_collisions         scene_6_collisions
     00000012  ___bank_scene_7_collisions         scene_7_collisions
     00000012  ___bank_scene_9_collisions         scene_9_collisions
     00000012  ___bank_script_s0_init             script_s0_init
     00000012  ___bank_tilemap_0                  tilemap_0
     00000012  ___bank_tilemap_1                  tilemap_1
     00000012  ___bank_tilemap_10                 tilemap_10
     00000012  ___bank_tilemap_11                 tilemap_11
     00000012  ___bank_tilemap_12                 tilemap_12
     00000012  ___bank_tilemap_13                 tilemap_13
     00000012  ___bank_tilemap_14                 tilemap_14
     00000012  ___bank_tilemap_15                 tilemap_15
     00000012  ___bank_tilemap_16                 tilemap_16
     00000012  ___bank_tilemap_17                 tilemap_17
     00000012  ___bank_tilemap_18                 tilemap_18
     00000012  ___bank_tilemap_19                 tilemap_19
     00000012  ___bank_tilemap_2                  tilemap_2
     00000012  ___bank_tilemap_20                 tilemap_20
     00000012  ___bank_tilemap_21                 tilemap_21
     00000012  ___bank_tilemap_22                 tilemap_22
     00000012  ___bank_tilemap_23                 tilemap_23
ASxxxx Linker V03.00 + NoICE + sdld,  page 10.
Hexadecimal  [32-Bits]

Area                                    Addr        Size        Decimal Bytes (Attributes)
--------------------------------        ----        ----        ------- ----- ------------
.  .ABS.                            00000000    00000000 =           0. bytes (ABS,CON)

      Value  Global                              Global Defined In Module
      -----  --------------------------------   ------------------------
     00000012  ___bank_tilemap_24                 tilemap_24
     00000012  ___bank_tilemap_25                 tilemap_25
     00000012  ___bank_tilemap_26                 tilemap_26
     00000013  ___bank_scene_20_actors            scene_20_actors
     00000013  ___bank_scene_26_sprites           scene_26_sprites
     00000013  ___bank_scene_43_actors            scene_43_actors
     00000013  ___bank_script_s16a7_update        script_s16a7_update
     00000013  ___bank_script_s16t0_interact      script_s16t0_interact
     00000013  ___bank_script_s18t0_interact      script_s18t0_interact
     00000013  ___bank_script_s20a3_interact      script_s20a3_interact
     00000013  ___bank_script_s20a3_update        script_s20a3_update
     00000013  ___bank_script_s22t0_interact      script_s22t0_interact
     00000013  ___bank_script_s24t0_interact      script_s24t0_interact
     00000013  ___bank_script_s28a2_interact      script_s28a2_interact
     00000013  ___bank_script_s28a2_update        script_s28a2_update
     00000013  ___bank_script_s30a12_update       script_s30a12_update
     00000013  ___bank_script_s30a13_update       script_s30a13_update
     00000013  ___bank_script_s30a7_update        script_s30a7_update
     00000013  ___bank_script_s30a9_update        script_s30a9_update
     00000013  ___bank_script_s34a14_update       script_s34a14_update
     00000013  ___bank_script_s34a8_update        script_s34a8_update
     00000013  ___bank_script_s34a9_update        script_s34a9_update
     00000013  ___bank_script_s36a0_update        script_s36a0_update
     00000013  ___bank_script_s39a0_update        script_s39a0_update
     00000013  ___bank_script_s6a0_update         script_s6a0_update
     00000013  ___bank_spritesheet_50             spritesheet_50
     00000013  ___bank_tilemap_27                 tilemap_27
     00000013  ___bank_tilemap_3                  tilemap_3
     00000013  ___bank_tilemap_4                  tilemap_4
     00000013  ___bank_tilemap_40                 tilemap_40
     00000013  ___bank_tilemap_41                 tilemap_41
     00000013  ___bank_tilemap_42                 tilemap_42
     00000013  ___bank_tilemap_43                 tilemap_43
     00000013  ___bank_tilemap_6                  tilemap_6
     00000013  ___bank_tilemap_7                  tilemap_7
     00000013  ___bank_tilemap_8                  tilemap_8
     00000013  ___bank_tilemap_9                  tilemap_9
     00000013  ___bank_tilemap_attr_0             tilemap_attr_0
     00000013  ___bank_tilemap_attr_1             tilemap_attr_1
     00000013  ___bank_tilemap_attr_10            tilemap_attr_10
     00000013  ___bank_tilemap_attr_11            tilemap_attr_11
     00000013  ___bank_tilemap_attr_12            tilemap_attr_12
     00000013  ___bank_tilemap_attr_13            tilemap_attr_13
     00000013  ___bank_tilemap_attr_2             tilemap_attr_2
     00000013  ___bank_tilemap_attr_25            tilemap_attr_25
     00000013  ___bank_tilemap_attr_3             tilemap_attr_3
     00000013  ___bank_tilemap_attr_5             tilemap_attr_5
     00000013  ___bank_tilemap_attr_6             tilemap_attr_6
     00000013  ___bank_tilemap_attr_7             tilemap_attr_7
     00000013  ___bank_tilemap_attr_8             tilemap_attr_8
     00000013  ___bank_tilemap_attr_9             tilemap_attr_9
ASxxxx Linker V03.00 + NoICE + sdld,  page 11.
Hexadecimal  [32-Bits]

Area                                    Addr        Size        Decimal Bytes (Attributes)
--------------------------------        ----        ----        ------- ----- ------------
.  .ABS.                            00000000    00000000 =           0. bytes (ABS,CON)

      Value  Global                              Global Defined In Module
      -----  --------------------------------   ------------------------
     00000013  ___bank_tileset_41                 tileset_41
     00000013  ___bank_tileset_66                 tileset_66
     00000013  ___bank_tileset_71                 tileset_71
     00000014  ___bank_scene_28_actors            scene_28_actors
     00000014  ___bank_scene_36_actors            scene_36_actors
     00000014  ___bank_script_input_0             script_input_0
     00000014  ___bank_script_s10a10_interact     script_s10a10_interact
     00000014  ___bank_script_s10a16_interact     script_s10a16_interact
     00000014  ___bank_script_s10a17_interact     script_s10a17_interact
     00000014  ___bank_script_s10a18_interact     script_s10a18_interact
     00000014  ___bank_script_s12a10_interact     script_s12a10_interact
     00000014  ___bank_script_s12a12_interact     script_s12a12_interact
     00000014  ___bank_script_s12a15_interact     script_s12a15_interact
     00000014  ___bank_script_s12a5_interact      script_s12a5_interact
     00000014  ___bank_script_s14a10_interact     script_s14a10_interact
     00000014  ___bank_script_s14a11_interact     script_s14a11_interact
     00000014  ___bank_script_s14a11_update       script_s14a11_update
     00000014  ___bank_script_s14a13_interact     script_s14a13_interact
     00000014  ___bank_script_s14a14_interact     script_s14a14_interact
     00000014  ___bank_script_s14a14_update       script_s14a14_update
     00000014  ___bank_script_s14a17_interact     script_s14a17_interact
     00000014  ___bank_script_s14a4_interact      script_s14a4_interact
     00000014  ___bank_script_s14a4_update        script_s14a4_update
     00000014  ___bank_script_s16_p_hit1          script_s16_p_hit1
     00000014  ___bank_script_s16a14_interact     script_s16a14_interact
     00000014  ___bank_script_s16a15_interact     script_s16a15_interact
     00000014  ___bank_script_s16a5_interact      script_s16a5_interact
     00000014  ___bank_script_s16a6_interact      script_s16a6_interact
     00000014  ___bank_script_s18_p_hit1          script_s18_p_hit1
     00000014  ___bank_script_s18a12_interact     script_s18a12_interact
     00000014  ___bank_script_s18a12_update       script_s18a12_update
     00000014  ___bank_script_s18a16_interact     script_s18a16_interact
     00000014  ___bank_script_s18a16_update       script_s18a16_update
     00000014  ___bank_script_s18a7_interact      script_s18a7_interact
     00000014  ___bank_script_s18a7_update        script_s18a7_update
     00000014  ___bank_script_s22_init            script_s22_init
     00000014  ___bank_script_s22_p_hit1          script_s22_p_hit1
     00000014  ___bank_script_s22a10_interact     script_s22a10_interact
     00000014  ___bank_script_s22a13_interact     script_s22a13_interact
     00000014  ___bank_script_s22a14_interact     script_s22a14_interact
     00000014  ___bank_script_s24_init            script_s24_init
     00000014  ___bank_script_s24_p_hit1          script_s24_p_hit1
     00000014  ___bank_script_s24a10_update       script_s24a10_update
     00000014  ___bank_script_s24a12_update       script_s24a12_update
     00000014  ___bank_script_s26_p_hit1          script_s26_p_hit1
     00000014  ___bank_script_s26t0_interact      script_s26t0_interact
     00000014  ___bank_script_s28_p_hit1          script_s28_p_hit1
     00000014  ___bank_script_s28t0_interact      script_s28t0_interact
     00000014  ___bank_script_s30_init            script_s30_init
     00000014  ___bank_script_s30_p_hit1          script_s30_p_hit1
     00000014  ___bank_script_s30t0_interact      script_s30t0_interact
ASxxxx Linker V03.00 + NoICE + sdld,  page 12.
Hexadecimal  [32-Bits]

Area                                    Addr        Size        Decimal Bytes (Attributes)
--------------------------------        ----        ----        ------- ----- ------------
.  .ABS.                            00000000    00000000 =           0. bytes (ABS,CON)

      Value  Global                              Global Defined In Module
      -----  --------------------------------   ------------------------
     00000014  ___bank_script_s32_init            script_s32_init
     00000014  ___bank_script_s32_p_hit1          script_s32_p_hit1
     00000014  ___bank_script_s32a10_interact     script_s32a10_interact
     00000014  ___bank_script_s32a11_interact     script_s32a11_interact
     00000014  ___bank_script_s32a14_update       script_s32a14_update
     00000014  ___bank_script_s32a15_interact     script_s32a15_interact
     00000014  ___bank_script_s32a16_interact     script_s32a16_interact
     00000014  ___bank_script_s32a17_interact     script_s32a17_interact
     00000014  ___bank_script_s32a18_interact     script_s32a18_interact
     00000014  ___bank_script_s32a2_interact      script_s32a2_interact
     00000014  ___bank_script_s32a5_interact      script_s32a5_interact
     00000014  ___bank_script_s32a7_interact      script_s32a7_interact
     00000014  ___bank_script_s32t0_interact      script_s32t0_interact
     00000014  ___bank_script_s34_p_hit1          script_s34_p_hit1
     00000014  ___bank_script_s34t0_interact      script_s34t0_interact
     00000014  ___bank_script_s36_p_hit1          script_s36_p_hit1
     00000014  ___bank_script_s36t0_interact      script_s36t0_interact
     00000014  ___bank_script_s8a12_interact      script_s8a12_interact
     00000014  ___bank_script_s8a14_interact      script_s8a14_interact
     00000014  ___bank_script_s8a15_interact      script_s8a15_interact
     00000014  ___bank_script_s8a7_interact       script_s8a7_interact
     00000014  ___bank_tileset_19                 tileset_19
     00000014  ___bank_tileset_47                 tileset_47
     00000014  ___bank_tileset_48                 tileset_48
     00000015  ___bank_scene_44_actors            scene_44_actors
     00000015  ___bank_script_s10a11_interact     script_s10a11_interact
     00000015  ___bank_script_s10a13_interact     script_s10a13_interact
     00000015  ___bank_script_s10a15_interact     script_s10a15_interact
     00000015  ___bank_script_s10a5_interact      script_s10a5_interact
     00000015  ___bank_script_s10a7_interact      script_s10a7_interact
     00000015  ___bank_script_s10a8_interact      script_s10a8_interact
     00000015  ___bank_script_s10a9_interact      script_s10a9_interact
     00000015  ___bank_script_s12_init            script_s12_init
     00000015  ___bank_script_s12a11_interact     script_s12a11_interact
     00000015  ___bank_script_s12a13_interact     script_s12a13_interact
     00000015  ___bank_script_s12a14_interact     script_s12a14_interact
     00000015  ___bank_script_s12a16_interact     script_s12a16_interact
     00000015  ___bank_script_s12a18_interact     script_s12a18_interact
     00000015  ___bank_script_s12a4_interact      script_s12a4_interact
     00000015  ___bank_script_s12a7_interact      script_s12a7_interact
     00000015  ___bank_script_s12a8_interact      script_s12a8_interact
     00000015  ___bank_script_s12a9_interact      script_s12a9_interact
     00000015  ___bank_script_s14a12_interact     script_s14a12_interact
     00000015  ___bank_script_s14a16_interact     script_s14a16_interact
     00000015  ___bank_script_s14a6_interact      script_s14a6_interact
     00000015  ___bank_script_s14a7_interact      script_s14a7_interact
     00000015  ___bank_script_s14a9_interact      script_s14a9_interact
     00000015  ___bank_script_s16a12_interact     script_s16a12_interact
     00000015  ___bank_script_s16a17_update       script_s16a17_update
     00000015  ___bank_script_s16a18_update       script_s16a18_update
     00000015  ___bank_script_s16a19_update       script_s16a19_update
ASxxxx Linker V03.00 + NoICE + sdld,  page 13.
Hexadecimal  [32-Bits]

Area                                    Addr        Size        Decimal Bytes (Attributes)
--------------------------------        ----        ----        ------- ----- ------------
.  .ABS.                            00000000    00000000 =           0. bytes (ABS,CON)

      Value  Global                              Global Defined In Module
      -----  --------------------------------   ------------------------
     00000015  ___bank_script_s16a4_interact      script_s16a4_interact
     00000015  ___bank_script_s16a9_interact      script_s16a9_interact
     00000015  ___bank_script_s18a11_interact     script_s18a11_interact
     00000015  ___bank_script_s18a13_interact     script_s18a13_interact
     00000015  ___bank_script_s18a14_interact     script_s18a14_interact
     00000015  ___bank_script_s18a15_interact     script_s18a15_interact
     00000015  ___bank_script_s18a18_interact     script_s18a18_interact
     00000015  ___bank_script_s18a4_interact      script_s18a4_interact
     00000015  ___bank_script_s18a5_interact      script_s18a5_interact
     00000015  ___bank_script_s22a12_interact     script_s22a12_interact
     00000015  ___bank_script_s22a15_interact     script_s22a15_interact
     00000015  ___bank_script_s22a16_interact     script_s22a16_interact
     00000015  ___bank_script_s22a17_interact     script_s22a17_interact
     00000015  ___bank_script_s22a6_interact      script_s22a6_interact
     00000015  ___bank_script_s22a8_interact      script_s22a8_interact
     00000015  ___bank_script_s22a9_interact      script_s22a9_interact
     00000015  ___bank_script_s24a10_interact     script_s24a10_interact
     00000015  ___bank_script_s24a11_interact     script_s24a11_interact
     00000015  ___bank_script_s24a12_interact     script_s24a12_interact
     00000015  ___bank_script_s24a14_interact     script_s24a14_interact
     00000015  ___bank_script_s24a16_interact     script_s24a16_interact
     00000015  ___bank_script_s24a17_interact     script_s24a17_interact
     00000015  ___bank_script_s24a2_interact      script_s24a2_interact
     00000015  ___bank_script_s24a6_interact      script_s24a6_interact
     00000015  ___bank_script_s26a11_interact     script_s26a11_interact
     00000015  ___bank_script_s26a12_interact     script_s26a12_interact
     00000015  ___bank_script_s26a13_interact     script_s26a13_interact
     00000015  ___bank_script_s26a15_interact     script_s26a15_interact
     00000015  ___bank_script_s26a16_interact     script_s26a16_interact
     00000015  ___bank_script_s26a17_interact     script_s26a17_interact
     00000015  ___bank_script_s26a18_interact     script_s26a18_interact
     00000015  ___bank_script_s26a19_interact     script_s26a19_interact
     00000015  ___bank_script_s26a4_interact      script_s26a4_interact
     00000015  ___bank_script_s26a6_interact      script_s26a6_interact
     00000015  ___bank_script_s26a8_interact      script_s26a8_interact
     00000015  ___bank_script_s26a9_interact      script_s26a9_interact
     00000015  ___bank_script_s30a10_interact     script_s30a10_interact
     00000015  ___bank_script_s30a11_interact     script_s30a11_interact
     00000015  ___bank_script_s30a14_interact     script_s30a14_interact
     00000015  ___bank_script_s30a15_interact     script_s30a15_interact
     00000015  ___bank_script_s30a4_interact      script_s30a4_interact
     00000015  ___bank_script_s30a5_interact      script_s30a5_interact
     00000015  ___bank_script_s30a8_interact      script_s30a8_interact
     00000015  ___bank_script_s32a14_interact     script_s32a14_interact
     00000015  ___bank_script_s34a11_interact     script_s34a11_interact
     00000015  ___bank_script_s34a16_interact     script_s34a16_interact
     00000015  ___bank_script_s8a11_interact      script_s8a11_interact
     00000015  ___bank_script_s8a13_interact      script_s8a13_interact
     00000015  ___bank_script_s8a16_interact      script_s8a16_interact
     00000015  ___bank_script_s8a17_interact      script_s8a17_interact
     00000016  ___bank_frame_image                frame_image
ASxxxx Linker V03.00 + NoICE + sdld,  page 14.
Hexadecimal  [32-Bits]

Area                                    Addr        Size        Decimal Bytes (Attributes)
--------------------------------        ----        ----        ------- ----- ------------
.  .ABS.                            00000000    00000000 =           0. bytes (ABS,CON)

      Value  Global                              Global Defined In Module
      -----  --------------------------------   ------------------------
     00000016  ___bank_scene_10_triggers          scene_10_triggers
     00000016  ___bank_script_input_12            script_input_12
     00000016  ___bank_script_input_16            script_input_16
     00000016  ___bank_script_input_8             script_input_8
     00000016  ___bank_script_s10_init            script_s10_init
     00000016  ___bank_script_s10_p_hit1          script_s10_p_hit1
     00000016  ___bank_script_s10a0_update        script_s10a0_update
     00000016  ___bank_script_s10t0_interact      script_s10t0_interact
     00000016  ___bank_script_s12_p_hit1          script_s12_p_hit1
     00000016  ___bank_script_s12a0_update        script_s12a0_update
     00000016  ___bank_script_s12t0_interact      script_s12t0_interact
     00000016  ___bank_script_s14_init            script_s14_init
     00000016  ___bank_script_s14_p_hit1          script_s14_p_hit1
     00000016  ___bank_script_s14a0_update        script_s14a0_update
     00000016  ___bank_script_s14t0_interact      script_s14t0_interact
     00000016  ___bank_script_s16_init            script_s16_init
     00000016  ___bank_script_s16a0_update        script_s16a0_update
     00000016  ___bank_script_s18_init            script_s18_init
     00000016  ___bank_script_s18a0_update        script_s18a0_update
     00000016  ___bank_script_s20_init            script_s20_init
     00000016  ___bank_script_s20_p_hit1          script_s20_p_hit1
     00000016  ___bank_script_s20a0_update        script_s20a0_update
     00000016  ___bank_script_s20t0_interact      script_s20t0_interact
     00000016  ___bank_script_s22a0_update        script_s22a0_update
     00000016  ___bank_script_s22a13_update       script_s22a13_update
     00000016  ___bank_script_s22a16_update       script_s22a16_update
     00000016  ___bank_script_s22a17_update       script_s22a17_update
     00000016  ___bank_script_s22a8_update        script_s22a8_update
     00000016  ___bank_script_s24a0_update        script_s24a0_update
     00000016  ___bank_script_s24a15_update       script_s24a15_update
     00000016  ___bank_script_s24a5_update        script_s24a5_update
     00000016  ___bank_script_s24a9_update        script_s24a9_update
     00000016  ___bank_script_s26_init            script_s26_init
     00000016  ___bank_script_s26a0_update        script_s26a0_update
     00000016  ___bank_script_s28_init            script_s28_init
     00000016  ___bank_script_s28a4_update        script_s28a4_update
     00000016  ___bank_script_s30a0_update        script_s30a0_update
     00000016  ___bank_script_s30a10_update       script_s30a10_update
     00000016  ___bank_script_s30a14_update       script_s30a14_update
     00000016  ___bank_script_s30a4_update        script_s30a4_update
     00000016  ___bank_script_s32a0_update        script_s32a0_update
     00000016  ___bank_script_s32a8_update        script_s32a8_update
     00000016  ___bank_script_s32a9_update        script_s32a9_update
     00000016  ___bank_script_s34_init            script_s34_init
     00000016  ___bank_script_s34a0_update        script_s34a0_update
     00000016  ___bank_script_s34a2_update        script_s34a2_update
     00000016  ___bank_script_s36_init            script_s36_init
     00000016  ___bank_script_s36a2_update        script_s36a2_update
     00000016  ___bank_script_s44a1_update        script_s44a1_update
     00000016  ___bank_script_s8_init             script_s8_init
     00000016  ___bank_script_s8_p_hit1           script_s8_p_hit1
ASxxxx Linker V03.00 + NoICE + sdld,  page 15.
Hexadecimal  [32-Bits]

Area                                    Addr        Size        Decimal Bytes (Attributes)
--------------------------------        ----        ----        ------- ----- ------------
.  .ABS.                            00000000    00000000 =           0. bytes (ABS,CON)

      Value  Global                              Global Defined In Module
      -----  --------------------------------   ------------------------
     00000016  ___bank_script_s8a0_update         script_s8a0_update
     00000016  ___bank_script_s8a3_interact       script_s8a3_interact
     00000016  ___bank_script_s8a5_interact       script_s8a5_interact
     00000016  ___bank_script_s8a6_interact       script_s8a6_interact
     00000016  ___bank_script_s8a8_interact       script_s8a8_interact
     00000016  ___bank_script_s8a9_interact       script_s8a9_interact
     00000016  ___bank_script_s8t0_interact       script_s8t0_interact
     00000016  ___bank_spritesheet_17             spritesheet_17
     00000016  ___bank_spritesheet_21             spritesheet_21
     00000016  ___bank_spritesheet_23             spritesheet_23
     00000016  ___bank_spritesheet_26             spritesheet_26
     00000016  ___bank_spritesheet_30             spritesheet_30
     00000016  ___bank_spritesheet_32             spritesheet_32
     00000016  ___bank_spritesheet_33             spritesheet_33
     00000016  ___bank_spritesheet_34             spritesheet_34
     00000016  ___bank_spritesheet_36             spritesheet_36
     00000016  ___bank_spritesheet_44             spritesheet_44
     00000016  ___bank_spritesheet_57             spritesheet_57
     00000016  ___bank_tileset_18                 tileset_18
     00000016  ___bank_tileset_20                 tileset_20
     00000016  ___bank_tileset_31                 tileset_31
     00000016  ___bank_tileset_36                 tileset_36
     00000016  ___bank_tileset_37                 tileset_37
     00000016  ___bank_tileset_38                 tileset_38
     00000016  ___bank_tileset_39                 tileset_39
     00000016  ___bank_tileset_40                 tileset_40
     00000016  ___bank_tileset_42                 tileset_42
     00000016  ___bank_tileset_43                 tileset_43
     00000016  ___bank_tileset_44                 tileset_44
     00000016  ___bank_tileset_46                 tileset_46
     00000016  ___bank_tileset_49                 tileset_49
     00000016  ___bank_tileset_50                 tileset_50
     00000016  ___bank_tileset_53                 tileset_53
     00000016  ___bank_tileset_54                 tileset_54
     00000016  ___bank_tileset_55                 tileset_55
     00000016  ___bank_tileset_56                 tileset_56
     00000016  ___bank_tileset_57                 tileset_57
     00000016  ___bank_tileset_58                 tileset_58
     00000016  ___bank_tileset_60                 tileset_60
     00000016  ___bank_tileset_61                 tileset_61
     00000016  ___bank_tileset_63                 tileset_63
     00000016  ___bank_tileset_65                 tileset_65
     00000016  ___bank_tileset_67                 tileset_67
     00000016  ___bank_tileset_69                 tileset_69
     00000016  ___bank_tileset_72                 tileset_72
     00000016  ___bank_tileset_73                 tileset_73
     00000017  ___bank_palette_0                  palette_0
     00000017  ___bank_palette_1                  palette_1
     00000017  ___bank_palette_10                 palette_10
     00000017  ___bank_scene_10_projectiles       scene_10_projectiles
     00000017  ___bank_scene_12_projectiles       scene_12_projectiles
ASxxxx Linker V03.00 + NoICE + sdld,  page 16.
Hexadecimal  [32-Bits]

Area                                    Addr        Size        Decimal Bytes (Attributes)
--------------------------------        ----        ----        ------- ----- ------------
.  .ABS.                            00000000    00000000 =           0. bytes (ABS,CON)

      Value  Global                              Global Defined In Module
      -----  --------------------------------   ------------------------
     00000017  ___bank_scene_16_projectiles       scene_16_projectiles
     00000017  ___bank_scene_20_projectiles       scene_20_projectiles
     00000017  ___bank_scene_22_projectiles       scene_22_projectiles
     00000017  ___bank_scene_24_projectiles       scene_24_projectiles
     00000017  ___bank_scene_26_projectiles       scene_26_projectiles
     00000017  ___bank_scene_28_projectiles       scene_28_projectiles
     00000017  ___bank_scene_30_projectiles       scene_30_projectiles
     00000017  ___bank_scene_30_triggers          scene_30_triggers
     00000017  ___bank_scene_32_projectiles       scene_32_projectiles
     00000017  ___bank_scene_34_projectiles       scene_34_projectiles
     00000017  ___bank_scene_36_projectiles       scene_36_projectiles
     00000017  ___bank_scene_45_actors            scene_45_actors
     00000017  ___bank_script_s10a10_update       script_s10a10_update
     00000017  ___bank_script_s10a15_update       script_s10a15_update
     00000017  ___bank_script_s10a16_update       script_s10a16_update
     00000017  ___bank_script_s10a17_update       script_s10a17_update
     00000017  ___bank_script_s10a18_update       script_s10a18_update
     00000017  ___bank_script_s10a1_update        script_s10a1_update
     00000017  ___bank_script_s10a2_interact      script_s10a2_interact
     00000017  ___bank_script_s10a5_update        script_s10a5_update
     00000017  ___bank_script_s10a7_update        script_s10a7_update
     00000017  ___bank_script_s10a8_update        script_s10a8_update
     00000017  ___bank_script_s10a9_update        script_s10a9_update
     00000017  ___bank_script_s11_init            script_s11_init
     00000017  ___bank_script_s12a10_update       script_s12a10_update
     00000017  ___bank_script_s12a11_update       script_s12a11_update
     00000017  ___bank_script_s12a12_update       script_s12a12_update
     00000017  ___bank_script_s12a13_update       script_s12a13_update
     00000017  ___bank_script_s12a14_update       script_s12a14_update
     00000017  ___bank_script_s12a15_update       script_s12a15_update
     00000017  ___bank_script_s12a16_update       script_s12a16_update
     00000017  ___bank_script_s12a17_interact     script_s12a17_interact
     00000017  ___bank_script_s12a18_update       script_s12a18_update
     00000017  ___bank_script_s12a4_update        script_s12a4_update
     00000017  ___bank_script_s12a5_update        script_s12a5_update
     00000017  ___bank_script_s12a7_update        script_s12a7_update
     00000017  ___bank_script_s12a8_update        script_s12a8_update
     00000017  ___bank_script_s12a9_update        script_s12a9_update
     00000017  ___bank_script_s13_init            script_s13_init
     00000017  ___bank_script_s14a10_update       script_s14a10_update
     00000017  ___bank_script_s14a12_update       script_s14a12_update
     00000017  ___bank_script_s14a13_update       script_s14a13_update
     00000017  ___bank_script_s14a16_update       script_s14a16_update
     00000017  ___bank_script_s14a17_update       script_s14a17_update
     00000017  ___bank_script_s14a19_interact     script_s14a19_interact
     00000017  ___bank_script_s14a6_update        script_s14a6_update
     00000017  ___bank_script_s14a7_update        script_s14a7_update
     00000017  ___bank_script_s14a9_update        script_s14a9_update
     00000017  ___bank_script_s15_init            script_s15_init
     00000017  ___bank_script_s16a12_update       script_s16a12_update
     00000017  ___bank_script_s16a14_update       script_s16a14_update
ASxxxx Linker V03.00 + NoICE + sdld,  page 17.
Hexadecimal  [32-Bits]

Area                                    Addr        Size        Decimal Bytes (Attributes)
--------------------------------        ----        ----        ------- ----- ------------
.  .ABS.                            00000000    00000000 =           0. bytes (ABS,CON)

      Value  Global                              Global Defined In Module
      -----  --------------------------------   ------------------------
     00000017  ___bank_script_s16a15_update       script_s16a15_update
     00000017  ___bank_script_s16a16_interact     script_s16a16_interact
     00000017  ___bank_script_s16a4_update        script_s16a4_update
     00000017  ___bank_script_s16a5_update        script_s16a5_update
     00000017  ___bank_script_s16a6_update        script_s16a6_update
     00000017  ___bank_script_s16a9_update        script_s16a9_update
     00000017  ___bank_script_s17_init            script_s17_init
     00000017  ___bank_script_s18a10_update       script_s18a10_update
     00000017  ___bank_script_s18a11_update       script_s18a11_update
     00000017  ___bank_script_s18a13_update       script_s18a13_update
     00000017  ___bank_script_s18a14_update       script_s18a14_update
     00000017  ___bank_script_s18a15_update       script_s18a15_update
     00000017  ___bank_script_s18a17_update       script_s18a17_update
     00000017  ___bank_script_s18a18_update       script_s18a18_update
     00000017  ___bank_script_s18a19_interact     script_s18a19_interact
     00000017  ___bank_script_s18a4_update        script_s18a4_update
     00000017  ___bank_script_s18a5_update        script_s18a5_update
     00000017  ___bank_script_s18a6_update        script_s18a6_update
     00000017  ___bank_script_s18a8_update        script_s18a8_update
     00000017  ___bank_script_s18a9_update        script_s18a9_update
     00000017  ___bank_script_s19_init            script_s19_init
     00000017  ___bank_script_s20a5_interact      script_s20a5_interact
     00000017  ___bank_script_s21_init            script_s21_init
     00000017  ___bank_script_s22a10_update       script_s22a10_update
     00000017  ___bank_script_s22a12_update       script_s22a12_update
     00000017  ___bank_script_s22a14_update       script_s22a14_update
     00000017  ___bank_script_s22a15_update       script_s22a15_update
     00000017  ___bank_script_s22a18_interact     script_s22a18_interact
     00000017  ___bank_script_s22a6_update        script_s22a6_update
     00000017  ___bank_script_s22a9_update        script_s22a9_update
     00000017  ___bank_script_s22t1_interact      script_s22t1_interact
     00000017  ___bank_script_s23_init            script_s23_init
     00000017  ___bank_script_s24a11_update       script_s24a11_update
     00000017  ___bank_script_s24a13_update       script_s24a13_update
     00000017  ___bank_script_s24a14_update       script_s24a14_update
     00000017  ___bank_script_s24a16_update       script_s24a16_update
     00000017  ___bank_script_s24a17_update       script_s24a17_update
     00000017  ___bank_script_s24a18_update       script_s24a18_update
     00000017  ___bank_script_s24a19_interact     script_s24a19_interact
     00000017  ___bank_script_s24a2_update        script_s24a2_update
     00000017  ___bank_script_s24a6_update        script_s24a6_update
     00000017  ___bank_script_s24a7_update        script_s24a7_update
     00000017  ___bank_script_s24a8_update        script_s24a8_update
     00000017  ___bank_script_s25_init            script_s25_init
     00000017  ___bank_script_s26a11_update       script_s26a11_update
     00000017  ___bank_script_s26a12_update       script_s26a12_update
     00000017  ___bank_script_s26a13_update       script_s26a13_update
     00000017  ___bank_script_s26a14_interact     script_s26a14_interact
     00000017  ___bank_script_s26a15_update       script_s26a15_update
     00000017  ___bank_script_s26a16_update       script_s26a16_update
     00000017  ___bank_script_s26a17_update       script_s26a17_update
ASxxxx Linker V03.00 + NoICE + sdld,  page 18.
Hexadecimal  [32-Bits]

Area                                    Addr        Size        Decimal Bytes (Attributes)
--------------------------------        ----        ----        ------- ----- ------------
.  .ABS.                            00000000    00000000 =           0. bytes (ABS,CON)

      Value  Global                              Global Defined In Module
      -----  --------------------------------   ------------------------
     00000017  ___bank_script_s26a18_update       script_s26a18_update
     00000017  ___bank_script_s26a19_update       script_s26a19_update
     00000017  ___bank_script_s26a4_update        script_s26a4_update
     00000017  ___bank_script_s26a6_update        script_s26a6_update
     00000017  ___bank_script_s26a8_update        script_s26a8_update
     00000017  ___bank_script_s26a9_update        script_s26a9_update
     00000017  ___bank_script_s26t1_interact      script_s26t1_interact
     00000017  ___bank_script_s26t2_interact      script_s26t2_interact
     00000017  ___bank_script_s27_init            script_s27_init
     00000017  ___bank_script_s28a3_interact      script_s28a3_interact
     00000017  ___bank_script_s29_init            script_s29_init
     00000017  ___bank_script_s30a11_update       script_s30a11_update
     00000017  ___bank_script_s30a15_update       script_s30a15_update
     00000017  ___bank_script_s30a17_interact     script_s30a17_interact
     00000017  ___bank_script_s30a5_update        script_s30a5_update
     00000017  ___bank_script_s30a8_update        script_s30a8_update
     00000017  ___bank_script_s31_init            script_s31_init
     00000017  ___bank_script_s32a10_update       script_s32a10_update
     00000017  ___bank_script_s32a11_update       script_s32a11_update
     00000017  ___bank_script_s32a12_update       script_s32a12_update
     00000017  ___bank_script_s32a15_update       script_s32a15_update
     00000017  ___bank_script_s32a16_update       script_s32a16_update
     00000017  ___bank_script_s32a17_update       script_s32a17_update
     00000017  ___bank_script_s32a18_update       script_s32a18_update
     00000017  ___bank_script_s32a19_interact     script_s32a19_interact
     00000017  ___bank_script_s32a2_update        script_s32a2_update
     00000017  ___bank_script_s32a5_update        script_s32a5_update
     00000017  ___bank_script_s32a7_update        script_s32a7_update
     00000017  ___bank_script_s32t1_interact      script_s32t1_interact
     00000017  ___bank_script_s32t2_interact      script_s32t2_interact
     00000017  ___bank_script_s33_init            script_s33_init
     00000017  ___bank_script_s34a10_update       script_s34a10_update
     00000017  ___bank_script_s34a11_update       script_s34a11_update
     00000017  ___bank_script_s34a13_update       script_s34a13_update
     00000017  ___bank_script_s34a15_update       script_s34a15_update
     00000017  ___bank_script_s34a16_update       script_s34a16_update
     00000017  ___bank_script_s34a17_update       script_s34a17_update
     00000017  ___bank_script_s34a18_interact     script_s34a18_interact
     00000017  ___bank_script_s34a3_update        script_s34a3_update
     00000017  ___bank_script_s34a6_update        script_s34a6_update
     00000017  ___bank_script_s34a7_update        script_s34a7_update
     00000017  ___bank_script_s34t1_interact      script_s34t1_interact
     00000017  ___bank_script_s35_init            script_s35_init
     00000017  ___bank_script_s36a4_interact      script_s36a4_interact
     00000017  ___bank_script_s37_init            script_s37_init
     00000017  ___bank_script_s40_init            script_s40_init
     00000017  ___bank_script_s41_init            script_s41_init
     00000017  ___bank_script_s42_init            script_s42_init
     00000017  ___bank_script_s43_init            script_s43_init
     00000017  ___bank_script_s45_init            script_s45_init
     00000017  ___bank_script_s7_init             script_s7_init
ASxxxx Linker V03.00 + NoICE + sdld,  page 19.
Hexadecimal  [32-Bits]

Area                                    Addr        Size        Decimal Bytes (Attributes)
--------------------------------        ----        ----        ------- ----- ------------
.  .ABS.                            00000000    00000000 =           0. bytes (ABS,CON)

      Value  Global                              Global Defined In Module
      -----  --------------------------------   ------------------------
     00000017  ___bank_script_s8a11_update        script_s8a11_update
     00000017  ___bank_script_s8a12_update        script_s8a12_update
     00000017  ___bank_script_s8a13_update        script_s8a13_update
     00000017  ___bank_script_s8a14_update        script_s8a14_update
     00000017  ___bank_script_s8a15_update        script_s8a15_update
     00000017  ___bank_script_s8a16_update        script_s8a16_update
     00000017  ___bank_script_s8a17_update        script_s8a17_update
     00000017  ___bank_script_s8a1_update         script_s8a1_update
     00000017  ___bank_script_s8a2_interact       script_s8a2_interact
     00000017  ___bank_script_s8a3_update         script_s8a3_update
     00000017  ___bank_script_s8a5_update         script_s8a5_update
     00000017  ___bank_script_s8a6_update         script_s8a6_update
     00000017  ___bank_script_s8a7_update         script_s8a7_update
     00000017  ___bank_script_s8a8_update         script_s8a8_update
     00000017  ___bank_script_s8a9_update         script_s8a9_update
     00000017  ___bank_script_s9_init             script_s9_init
     00000017  ___bank_spritesheet_20             spritesheet_20
     00000017  ___bank_spritesheet_25             spritesheet_25
     00000017  ___bank_spritesheet_28             spritesheet_28
     00000017  ___bank_spritesheet_41             spritesheet_41
     00000017  ___bank_spritesheet_52             spritesheet_52
     00000017  ___bank_spritesheet_54             spritesheet_54
     00000017  ___bank_spritesheet_56             spritesheet_56
     00000017  ___bank_spritesheet_58             spritesheet_58
     00000017  ___bank_spritesheet_61             spritesheet_61
     00000017  ___bank_tileset_62                 tileset_62
     00000017  ___bank_tileset_68                 tileset_68
     00000017  ___bank_tileset_74                 tileset_74
     00000018  ___bank_background_0               background_0
     00000018  ___bank_background_1               background_1
     00000018  ___bank_background_10              background_10
     00000018  ___bank_background_11              background_11
     00000018  ___bank_background_12              background_12
     00000018  ___bank_background_13              background_13
     00000018  ___bank_background_14              background_14
     00000018  ___bank_background_15              background_15
     00000018  ___bank_background_16              background_16
     00000018  ___bank_background_17              background_17
     00000018  ___bank_background_18              background_18
     00000018  ___bank_background_19              background_19
     00000018  ___bank_background_2               background_2
     00000018  ___bank_background_20              background_20
     00000018  ___bank_background_21              background_21
     00000018  ___bank_background_22              background_22
     00000018  ___bank_background_23              background_23
     00000018  ___bank_background_24              background_24
     00000018  ___bank_background_25              background_25
     00000018  ___bank_background_26              background_26
     00000018  ___bank_background_27              background_27
     00000018  ___bank_background_28              background_28
     00000018  ___bank_background_29              background_29
ASxxxx Linker V03.00 + NoICE + sdld,  page 20.
Hexadecimal  [32-Bits]

Area                                    Addr        Size        Decimal Bytes (Attributes)
--------------------------------        ----        ----        ------- ----- ------------
.  .ABS.                            00000000    00000000 =           0. bytes (ABS,CON)

      Value  Global                              Global Defined In Module
      -----  --------------------------------   ------------------------
     00000018  ___bank_background_3               background_3
     00000018  ___bank_background_30              background_30
     00000018  ___bank_background_31              background_31
     00000018  ___bank_background_32              background_32
     00000018  ___bank_background_33              background_33
     00000018  ___bank_background_34              background_34
     00000018  ___bank_background_35              background_35
     00000018  ___bank_background_36              background_36
     00000018  ___bank_background_37              background_37
     00000018  ___bank_background_38              background_38
     00000018  ___bank_background_39              background_39
     00000018  ___bank_background_4               background_4
     00000018  ___bank_background_40              background_40
     00000018  ___bank_background_41              background_41
     00000018  ___bank_background_42              background_42
     00000018  ___bank_background_43              background_43
     00000018  ___bank_background_5               background_5
     00000018  ___bank_background_6               background_6
     00000018  ___bank_background_7               background_7
     00000018  ___bank_background_8               background_8
     00000018  ___bank_background_9               background_9
     00000018  ___bank_bootstrap_script           
     00000018  ___bank_cursor_image               cursor_image
     00000018  ___bank_emote_0                    emote_0
     00000018  ___bank_palette_11                 palette_11
     00000018  ___bank_palette_12                 palette_12
     00000018  ___bank_palette_13                 palette_13
     00000018  ___bank_palette_14                 palette_14
     00000018  ___bank_palette_15                 palette_15
     00000018  ___bank_palette_16                 palette_16
     00000018  ___bank_palette_17                 palette_17
     00000018  ___bank_palette_18                 palette_18
     00000018  ___bank_palette_19                 palette_19
     00000018  ___bank_palette_2                  palette_2
     00000018  ___bank_palette_20                 palette_20
     00000018  ___bank_palette_21                 palette_21
     00000018  ___bank_palette_22                 palette_22
     00000018  ___bank_palette_23                 palette_23
     00000018  ___bank_palette_24                 palette_24
     00000018  ___bank_palette_25                 palette_25
     00000018  ___bank_palette_26                 palette_26
     00000018  ___bank_palette_27                 palette_27
     00000018  ___bank_palette_28                 palette_28
     00000018  ___bank_palette_29                 palette_29
     00000018  ___bank_palette_3                  palette_3
     00000018  ___bank_palette_30                 palette_30
     00000018  ___bank_palette_31                 palette_31
     00000018  ___bank_palette_32                 palette_32
     00000018  ___bank_palette_33                 palette_33
     00000018  ___bank_palette_34                 palette_34
     00000018  ___bank_palette_35                 palette_35
ASxxxx Linker V03.00 + NoICE + sdld,  page 21.
Hexadecimal  [32-Bits]

Area                                    Addr        Size        Decimal Bytes (Attributes)
--------------------------------        ----        ----        ------- ----- ------------
.  .ABS.                            00000000    00000000 =           0. bytes (ABS,CON)

      Value  Global                              Global Defined In Module
      -----  --------------------------------   ------------------------
     00000018  ___bank_palette_36                 palette_36
     00000018  ___bank_palette_37                 palette_37
     00000018  ___bank_palette_38                 palette_38
     00000018  ___bank_palette_39                 palette_39
     00000018  ___bank_palette_4                  palette_4
     00000018  ___bank_palette_40                 palette_40
     00000018  ___bank_palette_41                 palette_41
     00000018  ___bank_palette_42                 palette_42
     00000018  ___bank_palette_43                 palette_43
     00000018  ___bank_palette_44                 palette_44
     00000018  ___bank_palette_5                  palette_5
     00000018  ___bank_palette_6                  palette_6
     00000018  ___bank_palette_7                  palette_7
     00000018  ___bank_palette_8                  palette_8
     00000018  ___bank_palette_9                  palette_9
     00000018  ___bank_scene_0                    scene_0
     00000018  ___bank_scene_1                    scene_1
     00000018  ___bank_scene_10                   scene_10
     00000018  ___bank_scene_11                   scene_11
     00000018  ___bank_scene_12                   scene_12
     00000018  ___bank_scene_12_sprites           scene_12_sprites
     00000018  ___bank_scene_12_triggers          scene_12_triggers
     00000018  ___bank_scene_13                   scene_13
     00000018  ___bank_scene_14                   scene_14
     00000018  ___bank_scene_14_projectiles       scene_14_projectiles
     00000018  ___bank_scene_14_sprites           scene_14_sprites
     00000018  ___bank_scene_14_triggers          scene_14_triggers
     00000018  ___bank_scene_15                   scene_15
     00000018  ___bank_scene_16                   scene_16
     00000018  ___bank_scene_16_sprites           scene_16_sprites
     00000018  ___bank_scene_16_triggers          scene_16_triggers
     00000018  ___bank_scene_17                   scene_17
     00000018  ___bank_scene_18                   scene_18
     00000018  ___bank_scene_18_projectiles       scene_18_projectiles
     00000018  ___bank_scene_18_sprites           scene_18_sprites
     00000018  ___bank_scene_18_triggers          scene_18_triggers
     00000018  ___bank_scene_19                   scene_19
     00000018  ___bank_scene_2                    scene_2
     00000018  ___bank_scene_20                   scene_20
     00000018  ___bank_scene_20_triggers          scene_20_triggers
     00000018  ___bank_scene_21                   scene_21
     00000018  ___bank_scene_22                   scene_22
     00000018  ___bank_scene_22_sprites           scene_22_sprites
     00000018  ___bank_scene_22_triggers          scene_22_triggers
     00000018  ___bank_scene_23                   scene_23
     00000018  ___bank_scene_24                   scene_24
     00000018  ___bank_scene_24_sprites           scene_24_sprites
     00000018  ___bank_scene_24_triggers          scene_24_triggers
     00000018  ___bank_scene_25                   scene_25
     00000018  ___bank_scene_26                   scene_26
     00000018  ___bank_scene_26_triggers          scene_26_triggers
ASxxxx Linker V03.00 + NoICE + sdld,  page 22.
Hexadecimal  [32-Bits]

Area                                    Addr        Size        Decimal Bytes (Attributes)
--------------------------------        ----        ----        ------- ----- ------------
.  .ABS.                            00000000    00000000 =           0. bytes (ABS,CON)

      Value  Global                              Global Defined In Module
      -----  --------------------------------   ------------------------
     00000018  ___bank_scene_27                   scene_27
     00000018  ___bank_scene_28                   scene_28
     00000018  ___bank_scene_28_sprites           scene_28_sprites
     00000018  ___bank_scene_28_triggers          scene_28_triggers
     00000018  ___bank_scene_29                   scene_29
     00000018  ___bank_scene_2_actors             scene_2_actors
     00000018  ___bank_scene_3                    scene_3
     00000018  ___bank_scene_30                   scene_30
     00000018  ___bank_scene_30_sprites           scene_30_sprites
     00000018  ___bank_scene_31                   scene_31
     00000018  ___bank_scene_32                   scene_32
     00000018  ___bank_scene_32_sprites           scene_32_sprites
     00000018  ___bank_scene_32_triggers          scene_32_triggers
     00000018  ___bank_scene_33                   scene_33
     00000018  ___bank_scene_34                   scene_34
     00000018  ___bank_scene_34_sprites           scene_34_sprites
     00000018  ___bank_scene_34_triggers          scene_34_triggers
     00000018  ___bank_scene_35                   scene_35
     00000018  ___bank_scene_36                   scene_36
     00000018  ___bank_scene_36_sprites           scene_36_sprites
     00000018  ___bank_scene_36_triggers          scene_36_triggers
     00000018  ___bank_scene_37                   scene_37
     00000018  ___bank_scene_38                   scene_38
     00000018  ___bank_scene_39                   scene_39
     00000018  ___bank_scene_39_actors            scene_39_actors
     00000018  ___bank_scene_39_sprites           scene_39_sprites
     00000018  ___bank_scene_3_actors             scene_3_actors
     00000018  ___bank_scene_4                    scene_4
     00000018  ___bank_scene_40                   scene_40
     00000018  ___bank_scene_40_actors            scene_40_actors
     00000018  ___bank_scene_40_sprites           scene_40_sprites
     00000018  ___bank_scene_41                   scene_41
     00000018  ___bank_scene_41_actors            scene_41_actors
     00000018  ___bank_scene_41_sprites           scene_41_sprites
     00000018  ___bank_scene_42                   scene_42
     00000018  ___bank_scene_42_actors            scene_42_actors
     00000018  ___bank_scene_42_sprites           scene_42_sprites
     00000018  ___bank_scene_43                   scene_43
     00000018  ___bank_scene_44                   scene_44
     00000018  ___bank_scene_45                   scene_45
     00000018  ___bank_scene_45_sprites           scene_45_sprites
     00000018  ___bank_scene_5                    scene_5
     00000018  ___bank_scene_6                    scene_6
     00000018  ___bank_scene_6_actors             scene_6_actors
     00000018  ___bank_scene_6_sprites            scene_6_sprites
     00000018  ___bank_scene_7                    scene_7
     00000018  ___bank_scene_8                    scene_8
     00000018  ___bank_scene_8_projectiles        scene_8_projectiles
     00000018  ___bank_scene_8_sprites            scene_8_sprites
     00000018  ___bank_scene_8_triggers           scene_8_triggers
     00000018  ___bank_scene_9                    scene_9
ASxxxx Linker V03.00 + NoICE + sdld,  page 23.
Hexadecimal  [32-Bits]

Area                                    Addr        Size        Decimal Bytes (Attributes)
--------------------------------        ----        ----        ------- ----- ------------
.  .ABS.                            00000000    00000000 =           0. bytes (ABS,CON)

      Value  Global                              Global Defined In Module
      -----  --------------------------------   ------------------------
     00000018  ___bank_script_input_1             script_input_1
     00000018  ___bank_script_input_17            script_input_17
     00000018  ___bank_script_s10a12_interact     script_s10a12_interact
     00000018  ___bank_script_s10a12_update       script_s10a12_update
     00000018  ___bank_script_s10a14_interact     script_s10a14_interact
     00000018  ___bank_script_s10a14_update       script_s10a14_update
     00000018  ___bank_script_s10a19_interact     script_s10a19_interact
     00000018  ___bank_script_s10a19_update       script_s10a19_update
     00000018  ___bank_script_s10a6_interact      script_s10a6_interact
     00000018  ___bank_script_s10a6_update        script_s10a6_update
     00000018  ___bank_script_s12a6_interact      script_s12a6_interact
     00000018  ___bank_script_s12a6_update        script_s12a6_update
     00000018  ___bank_script_s12t1_interact      script_s12t1_interact
     00000018  ___bank_script_s14a15_interact     script_s14a15_interact
     00000018  ___bank_script_s14a15_update       script_s14a15_update
     00000018  ___bank_script_s14a18_interact     script_s14a18_interact
     00000018  ___bank_script_s14a18_update       script_s14a18_update
     00000018  ___bank_script_s14a5_interact      script_s14a5_interact
     00000018  ___bank_script_s14a5_update        script_s14a5_update
     00000018  ___bank_script_s14a8_interact      script_s14a8_interact
     00000018  ___bank_script_s14a8_update        script_s14a8_update
     00000018  ___bank_script_s14t1_interact      script_s14t1_interact
     00000018  ___bank_script_s16a10_interact     script_s16a10_interact
     00000018  ___bank_script_s16a10_update       script_s16a10_update
     00000018  ___bank_script_s16a11_interact     script_s16a11_interact
     00000018  ___bank_script_s16a11_update       script_s16a11_update
     00000018  ___bank_script_s16a13_interact     script_s16a13_interact
     00000018  ___bank_script_s16a13_update       script_s16a13_update
     00000018  ___bank_script_s16a17_interact     script_s16a17_interact
     00000018  ___bank_script_s16a18_interact     script_s16a18_interact
     00000018  ___bank_script_s16a19_interact     script_s16a19_interact
     00000018  ___bank_script_s16a7_interact      script_s16a7_interact
     00000018  ___bank_script_s16a8_interact      script_s16a8_interact
     00000018  ___bank_script_s16a8_update        script_s16a8_update
     00000018  ___bank_script_s18a10_interact     script_s18a10_interact
     00000018  ___bank_script_s18a17_interact     script_s18a17_interact
     00000018  ___bank_script_s18a6_interact      script_s18a6_interact
     00000018  ___bank_script_s18a8_interact      script_s18a8_interact
     00000018  ___bank_script_s18a9_interact      script_s18a9_interact
     00000018  ___bank_script_s1_init             script_s1_init
     00000018  ___bank_script_s22a4_interact      script_s22a4_interact
     00000018  ___bank_script_s22a4_update        script_s22a4_update
     00000018  ___bank_script_s22a5_update        script_s22a5_update
     00000018  ___bank_script_s22a7_interact      script_s22a7_interact
     00000018  ___bank_script_s22a7_update        script_s22a7_update
     00000018  ___bank_script_s24a13_interact     script_s24a13_interact
     00000018  ___bank_script_s24a15_interact     script_s24a15_interact
     00000018  ___bank_script_s24a18_interact     script_s24a18_interact
     00000018  ___bank_script_s24a5_interact      script_s24a5_interact
     00000018  ___bank_script_s24a7_interact      script_s24a7_interact
     00000018  ___bank_script_s24a8_interact      script_s24a8_interact
ASxxxx Linker V03.00 + NoICE + sdld,  page 24.
Hexadecimal  [32-Bits]

Area                                    Addr        Size        Decimal Bytes (Attributes)
--------------------------------        ----        ----        ------- ----- ------------
.  .ABS.                            00000000    00000000 =           0. bytes (ABS,CON)

      Value  Global                              Global Defined In Module
      -----  --------------------------------   ------------------------
     00000018  ___bank_script_s24a9_interact      script_s24a9_interact
     00000018  ___bank_script_s24t1_interact      script_s24t1_interact
     00000018  ___bank_script_s26a10_interact     script_s26a10_interact
     00000018  ___bank_script_s26a10_update       script_s26a10_update
     00000018  ___bank_script_s26a5_interact      script_s26a5_interact
     00000018  ___bank_script_s26a5_update        script_s26a5_update
     00000018  ___bank_script_s26a7_interact      script_s26a7_interact
     00000018  ___bank_script_s26a7_update        script_s26a7_update
     00000018  ___bank_script_s2_init             script_s2_init
     00000018  ___bank_script_s2a0_update         script_s2a0_update
     00000018  ___bank_script_s30a12_interact     script_s30a12_interact
     00000018  ___bank_script_s30a13_interact     script_s30a13_interact
     00000018  ___bank_script_s30a16_interact     script_s30a16_interact
     00000018  ___bank_script_s30a16_update       script_s30a16_update
     00000018  ___bank_script_s30a18_interact     script_s30a18_interact
     00000018  ___bank_script_s30a18_update       script_s30a18_update
     00000018  ___bank_script_s30a19_interact     script_s30a19_interact
     00000018  ___bank_script_s30a19_update       script_s30a19_update
     00000018  ___bank_script_s30a6_interact      script_s30a6_interact
     00000018  ___bank_script_s30a6_update        script_s30a6_update
     00000018  ___bank_script_s30a7_interact      script_s30a7_interact
     00000018  ___bank_script_s30a9_interact      script_s30a9_interact
     00000018  ___bank_script_s30t10_interact     script_s30t10_interact
     00000018  ___bank_script_s30t1_interact      script_s30t1_interact
     00000018  ___bank_script_s30t2_interact      script_s30t2_interact
     00000018  ___bank_script_s30t3_interact      script_s30t3_interact
     00000018  ___bank_script_s30t4_interact      script_s30t4_interact
     00000018  ___bank_script_s30t5_interact      script_s30t5_interact
     00000018  ___bank_script_s30t6_interact      script_s30t6_interact
     00000018  ___bank_script_s30t7_interact      script_s30t7_interact
     00000018  ___bank_script_s30t8_interact      script_s30t8_interact
     00000018  ___bank_script_s30t9_interact      script_s30t9_interact
     00000018  ___bank_script_s32a13_interact     script_s32a13_interact
     00000018  ___bank_script_s32a13_update       script_s32a13_update
     00000018  ___bank_script_s32a6_interact      script_s32a6_interact
     00000018  ___bank_script_s32a6_update        script_s32a6_update
     00000018  ___bank_script_s32a8_interact      script_s32a8_interact
     00000018  ___bank_script_s32a9_interact      script_s32a9_interact
     00000018  ___bank_script_s34a10_interact     script_s34a10_interact
     00000018  ___bank_script_s34a12_interact     script_s34a12_interact
     00000018  ___bank_script_s34a12_update       script_s34a12_update
     00000018  ___bank_script_s34a13_interact     script_s34a13_interact
     00000018  ___bank_script_s34a14_interact     script_s34a14_interact
     00000018  ___bank_script_s34a17_interact     script_s34a17_interact
     00000018  ___bank_script_s34a2_interact      script_s34a2_interact
     00000018  ___bank_script_s34a3_interact      script_s34a3_interact
     00000018  ___bank_script_s34a4_interact      script_s34a4_interact
     00000018  ___bank_script_s34a4_update        script_s34a4_update
     00000018  ___bank_script_s34a6_interact      script_s34a6_interact
     00000018  ___bank_script_s34a7_interact      script_s34a7_interact
     00000018  ___bank_script_s34a8_interact      script_s34a8_interact
ASxxxx Linker V03.00 + NoICE + sdld,  page 25.
Hexadecimal  [32-Bits]

Area                                    Addr        Size        Decimal Bytes (Attributes)
--------------------------------        ----        ----        ------- ----- ------------
.  .ABS.                            00000000    00000000 =           0. bytes (ABS,CON)

      Value  Global                              Global Defined In Module
      -----  --------------------------------   ------------------------
     00000018  ___bank_script_s34a9_interact      script_s34a9_interact
     00000018  ___bank_script_s38_init            script_s38_init
     00000018  ___bank_script_s39_init            script_s39_init
     00000018  ___bank_script_s3_init             script_s3_init
     00000018  ___bank_script_s44_init            script_s44_init
     00000018  ___bank_script_s4_init             script_s4_init
     00000018  ___bank_script_s5_init             script_s5_init
     00000018  ___bank_script_s6_init             script_s6_init
     00000018  ___bank_spritesheet_0              spritesheet_0
     00000018  ___bank_spritesheet_1              spritesheet_1
     00000018  ___bank_spritesheet_10             spritesheet_10
     00000018  ___bank_spritesheet_11             spritesheet_11
     00000018  ___bank_spritesheet_12             spritesheet_12
     00000018  ___bank_spritesheet_13             spritesheet_13
     00000018  ___bank_spritesheet_14             spritesheet_14
     00000018  ___bank_spritesheet_15             spritesheet_15
     00000018  ___bank_spritesheet_16             spritesheet_16
     00000018  ___bank_spritesheet_18             spritesheet_18
     00000018  ___bank_spritesheet_19             spritesheet_19
     00000018  ___bank_spritesheet_2              spritesheet_2
     00000018  ___bank_spritesheet_22             spritesheet_22
     00000018  ___bank_spritesheet_24             spritesheet_24
     00000018  ___bank_spritesheet_27             spritesheet_27
     00000018  ___bank_spritesheet_29             spritesheet_29
     00000018  ___bank_spritesheet_3              spritesheet_3
     00000018  ___bank_spritesheet_31             spritesheet_31
     00000018  ___bank_spritesheet_35             spritesheet_35
     00000018  ___bank_spritesheet_37             spritesheet_37
     00000018  ___bank_spritesheet_38             spritesheet_38
     00000018  ___bank_spritesheet_39             spritesheet_39
     00000018  ___bank_spritesheet_4              spritesheet_4
     00000018  ___bank_spritesheet_40             spritesheet_40
     00000018  ___bank_spritesheet_42             spritesheet_42
     00000018  ___bank_spritesheet_43             spritesheet_43
     00000018  ___bank_spritesheet_45             spritesheet_45
     00000018  ___bank_spritesheet_46             spritesheet_46
     00000018  ___bank_spritesheet_48             spritesheet_48
     00000018  ___bank_spritesheet_5              spritesheet_5
     00000018  ___bank_spritesheet_51             spritesheet_51
     00000018  ___bank_spritesheet_53             spritesheet_53
     00000018  ___bank_spritesheet_55             spritesheet_55
     00000018  ___bank_spritesheet_6              spritesheet_6
     00000018  ___bank_spritesheet_60             spritesheet_60
     00000018  ___bank_spritesheet_7              spritesheet_7
     00000018  ___bank_spritesheet_8              spritesheet_8
     00000018  ___bank_spritesheet_9              spritesheet_9
     00000018  ___bank_spritesheet_none           spritesheet_none
     00000018  ___bank_tileset_21                 tileset_21
     00000018  ___bank_tileset_22                 tileset_22
     00000018  ___bank_tileset_23                 tileset_23
     00000018  ___bank_tileset_24                 tileset_24
ASxxxx Linker V03.00 + NoICE + sdld,  page 26.
Hexadecimal  [32-Bits]

Area                                    Addr        Size        Decimal Bytes (Attributes)
--------------------------------        ----        ----        ------- ----- ------------
.  .ABS.                            00000000    00000000 =           0. bytes (ABS,CON)

      Value  Global                              Global Defined In Module
      -----  --------------------------------   ------------------------
     00000018  ___bank_tileset_25                 tileset_25
     00000018  ___bank_tileset_26                 tileset_26
     00000018  ___bank_tileset_27                 tileset_27
     00000018  ___bank_tileset_28                 tileset_28
     00000018  ___bank_tileset_29                 tileset_29
     00000018  ___bank_tileset_30                 tileset_30
     00000018  ___bank_tileset_33                 tileset_33
     00000018  ___bank_tileset_34                 tileset_34
     00000018  ___bank_tileset_52                 tileset_52
     0000001C  __start_save                    
     00000030  l__HEADER6                      
     00000033  l__GSINIT                       
     0000004E  l__HEADER4                      
     00000082  l__HEADER10                     
     000001CB  l__CRASH_SCRATCH2               
     00000200  s__CODE                         
     000006C3  l__CODE                         
     000008C3  s__HOME                         
     000008F0  ___size_miau                       miau
     000018F6  l__DATA                         
     00002000  _rROMB0                            
     00002745  l__HOME                         
     0000293B  l__CODE_4                       
     00002ADB  l__CODE_3                       
     00003000  _rROMB1                            
     00003008  s__BASE                         
     00003008  s__CODE_0                       
     00003008  s__INITIALIZER                  
     00003008  s__LIT                          
     00003016  s__GSINIT                       
     00003049  s__GSFINAL                      
     00003199  l__CODE_1                       
     00003241  l__CODE_24                      
     00003951  l__CODE_2                       
     00003FFE  l__CODE_14                      
     00003FFE  l__CODE_16                      
     00003FFE  l__CODE_22                      
     00003FFF  l__CODE_10                      
     00003FFF  l__CODE_11                      
     00003FFF  l__CODE_12                      
     00003FFF  l__CODE_13                      
     00003FFF  l__CODE_17                      
     00003FFF  l__CODE_18                      
     00003FFF  l__CODE_5                       
     00004000  _RTC_SELECT_REG                    vm_rtc
     00004000  _rRAMB                             
     00004000  l__CODE_15                      
     00004000  l__CODE_19                      
     00004000  l__CODE_20                      
     00004000  l__CODE_21                      
     00004000  l__CODE_23                      
ASxxxx Linker V03.00 + NoICE + sdld,  page 27.
Hexadecimal  [32-Bits]

Area                                    Addr        Size        Decimal Bytes (Attributes)
--------------------------------        ----        ----        ------- ----- ------------
.  .ABS.                            00000000    00000000 =           0. bytes (ABS,CON)

      Value  Global                              Global Defined In Module
      -----  --------------------------------   ------------------------
     00004000  l__CODE_6                       
     00004000  l__CODE_7                       
     00004000  l__CODE_8                       
     00004000  l__CODE_9                       
     00006000  _RTC_LATCH_REG                     vm_rtc
     00008000  __VRAM                             
     00008000  __VRAM8000                         
     00008800  __VRAM8800                         
     00009000  __VRAM9000                         
     00009800  __SCRN0                            
     00009C00  __SCRN1                            
     0000A000  _RTC_VALUE_REG                     vm_rtc
     0000A000  __SRAM                             
     0000C000  __RAM                              
     0000C000  _shadow_OAM                     
     0000C0A0  s__DATA                         
     0000D000  __RAMBANK                          
     0000D996  s__BSS                          
     0000D996  s__INITIALIZED                  
     0000D9A4  s__HEAP                         
     0000DF00  .STACK                          
     0000DF00  _shadow_OAM2                       absolute
     0000DFA0  _BkgPalette                        absolute
     0000DFE0  _vwf_tile_data                     absolute
     0000FE00  __OAMRAM                           
     0000FF00  _P1_REG                            
     0000FF00  __IO                               
     0000FF01  _SB_REG                            
     0000FF02  _SC_REG                            
     0000FF04  _DIV_REG                           
     0000FF05  _TIMA_REG                          
     0000FF06  _TMA_REG                           
     0000FF07  _TAC_REG                           
     0000FF0F  _IF_REG                            
     0000FF10  _NR10_REG                          
     0000FF11  _NR11_REG                          
     0000FF12  _NR12_REG                          
     0000FF13  _NR13_REG                          
     0000FF14  _NR14_REG                          
     0000FF16  _NR21_REG                          
     0000FF17  _NR22_REG                          
     0000FF18  _NR23_REG                          
     0000FF19  _NR24_REG                          
     0000FF1A  _NR30_REG                          
     0000FF1B  _NR31_REG                          
     0000FF1C  _NR32_REG                          
     0000FF1D  _NR33_REG                          
     0000FF1E  _NR34_REG                          
     0000FF20  _NR41_REG                          
     0000FF21  _NR42_REG                          
     0000FF22  _NR43_REG                          
ASxxxx Linker V03.00 + NoICE + sdld,  page 28.
Hexadecimal  [32-Bits]

Area                                    Addr        Size        Decimal Bytes (Attributes)
--------------------------------        ----        ----        ------- ----- ------------
.  .ABS.                            00000000    00000000 =           0. bytes (ABS,CON)

      Value  Global                              Global Defined In Module
      -----  --------------------------------   ------------------------
     0000FF23  _NR44_REG                          
     0000FF24  _NR50_REG                          
     0000FF25  _NR51_REG                          
     0000FF26  _NR52_REG                          
     0000FF30  _PCM_SAMPLE                        
     0000FF30  __AUD3WAVERAM                      
     0000FF40  _LCDC_REG                          
     0000FF41  _STAT_REG                          
     0000FF42  _SCY_REG                           
     0000FF43  _SCX_REG                           
     0000FF44  _LY_REG                            
     0000FF45  _LYC_REG                           
     0000FF46  _DMA_REG                           
     0000FF47  _BGP_REG                           
     0000FF48  _OBP0_REG                          
     0000FF49  _OBP1_REG                          
     0000FF4A  _WY_REG                            
     0000FF4B  _WX_REG                            
     0000FF4D  _KEY1_REG                          
     0000FF4F  _VBK_REG                           
     0000FF51  _HDMA1_REG                         
     0000FF52  _HDMA2_REG                         
     0000FF53  _HDMA3_REG                         
     0000FF54  _HDMA4_REG                         
     0000FF55  _HDMA5_REG                         
     0000FF56  _RP_REG                            
     0000FF68  _BCPS_REG                          
     0000FF69  _BCPD_REG                          
     0000FF6A  _OCPS_REG                          
     0000FF6B  _OCPD_REG                          
     0000FF70  _SVBK_REG                          
     0000FF76  _PCM12_REG                         
     0000FF77  _PCM34_REG                         
     0000FF80  .refresh_OAM                    
     0000FF80  __HRAM                             
     0000FFFF  _IE_REG                            
     00014000  s__CODE_1                       
     00024000  s__CODE_2                       
     00034000  s__CODE_3                       
     00044000  s__CODE_4                       
     00054000  s__CODE_5                       
     00064000  s__CODE_6                       
     00074000  s__CODE_7                       
     00084000  s__CODE_8                       
     00094000  s__CODE_9                       
     000A4000  s__CODE_10                      
     000B4000  s__CODE_11                      
     000C4000  s__CODE_12                      
     000D4000  s__CODE_13                      
     000E4000  s__CODE_14                      
     000F4000  s__CODE_15                      
ASxxxx Linker V03.00 + NoICE + sdld,  page 29.
Hexadecimal  [32-Bits]

Area                                    Addr        Size        Decimal Bytes (Attributes)
--------------------------------        ----        ----        ------- ----- ------------
.  .ABS.                            00000000    00000000 =           0. bytes (ABS,CON)

      Value  Global                              Global Defined In Module
      -----  --------------------------------   ------------------------
     00104000  s__CODE_16                      
     00114000  s__CODE_17                      
     00124000  s__CODE_18                      
     00134000  s__CODE_19                      
     00144000  s__CODE_20                      
     00154000  s__CODE_21                      
     00164000  s__CODE_22                      
     00174000  s__CODE_23                      
     00184000  s__CODE_24                      

ASxxxx Linker V03.00 + NoICE + sdld,  page 30.
Hexadecimal  [32-Bits]

Area                                    Addr        Size        Decimal Bytes (Attributes)
--------------------------------        ----        ----        ------- ----- ------------
_CODE                               00000200    000006C3 =        1731. bytes (REL,CON)

      Value  Global                              Global Defined In Module
      -----  --------------------------------   ------------------------
     00000200  ___HandleCrash                     
     0000020A  _SIO_send_byte                     
     0000021D  _SIO_receive                       
     0000022E  _hide_hardware_sprites             OAM_utils
     0000025A  _SetTile                           
     00000269  _set_win_tile_xy                   
     0000026E  _set_bkg_tile_xy                   
     00000291  _GetWinAddr                        
     00000299  _GetBkgAddr                        
     000002A7  _state_init                        
     000002AC  _state_update                      
     000002CE  _ui_time_masks                     
     000002D6  _ui_print_shift_char               
     00000359  _ui_draw_frame_row                 
     00000362  .ui_draw_frame_row                 
     0000038B  _script_cmds                       vm_instructions
     00000529  _start_scene_x                     
     0000052B  _start_scene_y                     
     0000052D  _start_scene_dir                   
     0000052E  _start_scene                       
     00000531  _start_player_move_speed           
     00000532  _start_player_anim_tick            
     00000533  _ui_fonts                          
     00000536  _core_reset_hook                   main
     0000053E  _main                              main
     00000546  _state_start_fns                   
     00000558  _state_update_fns                  
     00000587  gbt_get_pattern_ptr_banked         
     000005A6  _gbt_play                          
     00000661  _gbt_pause                         
     00000672  _gbt_loop                          
     00000679  _gbt_stop                          
     00000684  _gbt_enable_channels               
     0000068B  _gbt_update                        
     00000790  _set_sprite_palette                CGB
     00000795  _set_bkg_palette                   CGB
     00000798  .set_palette                       CGB
     000007B7  _set_sprite_palette_entry          CGB
     000007BC  _set_bkg_palette_entry             CGB
     000007BF  .set_palette_entry                 CGB
     000007DB  .sgb_check                         
     000007DB  _sgb_check                         
     00000823  _sgb_transfer                      
     00000828  .sgb_transfer                      
     00000869  ___move_metasprite                 Metasprites
     000008A1  _cpu_slow                          CGB
     000008BC  _cpu_fast                          CGB

ASxxxx Linker V03.00 + NoICE + sdld,  page 31.
Hexadecimal  [32-Bits]

Area                                    Addr        Size        Decimal Bytes (Attributes)
--------------------------------        ----        ----        ------- ----- ------------
_HEADER0                            00000000    00000001 =           1. bytes (ABS,CON)

      Value  Global                              Global Defined In Module
      -----  --------------------------------   ------------------------
     00000020  .call_hl                           Runtime

ASxxxx Linker V03.00 + NoICE + sdld,  page 32.
Hexadecimal  [32-Bits]

Area                                    Addr        Size        Decimal Bytes (Attributes)
--------------------------------        ----        ----        ------- ----- ------------
_HEADER1                            00000000    00000005 =           5. bytes (ABS,CON)

      Value  Global                              Global Defined In Module
      -----  --------------------------------   ------------------------
     00000028  .MemsetSmall                       Runtime

ASxxxx Linker V03.00 + NoICE + sdld,  page 33.
Hexadecimal  [32-Bits]

Area                                    Addr        Size        Decimal Bytes (Attributes)
--------------------------------        ----        ----        ------- ----- ------------
_HEADER2                            00000000    00000007 =           7. bytes (ABS,CON)

      Value  Global                              Global Defined In Module
      -----  --------------------------------   ------------------------
     00000030  .MemcpySmall                       Runtime

ASxxxx Linker V03.00 + NoICE + sdld,  page 34.
Hexadecimal  [32-Bits]

Area                                    Addr        Size        Decimal Bytes (Attributes)
--------------------------------        ----        ----        ------- ----- ------------
_HEADER3                            00000000    00000008 =           8. bytes (ABS,CON)

      Value  Global                              Global Defined In Module
      -----  --------------------------------   ------------------------
ASxxxx Linker V03.00 + NoICE + sdld,  page 35.
Hexadecimal  [32-Bits]

Area                                    Addr        Size        Decimal Bytes (Attributes)
--------------------------------        ----        ----        ------- ----- ------------
_HEADER4                            00000000    0000004E =          78. bytes (ABS,CON)

      Value  Global                              Global Defined In Module
      -----  --------------------------------   ------------------------
     00000080  .int                               Runtime
     0000008F  _wait_int_handler                  Runtime
     0000009C  __standard_VBL_handler             Runtime
     000000AC  _refresh_OAM                       Runtime

ASxxxx Linker V03.00 + NoICE + sdld,  page 36.
Hexadecimal  [32-Bits]

Area                                    Addr        Size        Decimal Bytes (Attributes)
--------------------------------        ----        ----        ------- ----- ------------
_HEADER5                            00000000    00000002 =           2. bytes (ABS,CON)

      Value  Global                              Global Defined In Module
      -----  --------------------------------   ------------------------
ASxxxx Linker V03.00 + NoICE + sdld,  page 37.
Hexadecimal  [32-Bits]

Area                                    Addr        Size        Decimal Bytes (Attributes)
--------------------------------        ----        ----        ------- ----- ------------
_HEADER6                            00000000    00000030 =          48. bytes (ABS,CON)

      Value  Global                              Global Defined In Module
      -----  --------------------------------   ------------------------
ASxxxx Linker V03.00 + NoICE + sdld,  page 38.
Hexadecimal  [32-Bits]

Area                                    Addr        Size        Decimal Bytes (Attributes)
--------------------------------        ----        ----        ------- ----- ------------
_HEADER7                            00000000    00000006 =           6. bytes (ABS,CON)

      Value  Global                              Global Defined In Module
      -----  --------------------------------   ------------------------
ASxxxx Linker V03.00 + NoICE + sdld,  page 39.
Hexadecimal  [32-Bits]

Area                                    Addr        Size        Decimal Bytes (Attributes)
--------------------------------        ----        ----        ------- ----- ------------
_HEADER8                            00000000    00000003 =           3. bytes (ABS,CON)

      Value  Global                              Global Defined In Module
      -----  --------------------------------   ------------------------
ASxxxx Linker V03.00 + NoICE + sdld,  page 40.
Hexadecimal  [32-Bits]

Area                                    Addr        Size        Decimal Bytes (Attributes)
--------------------------------        ----        ----        ------- ----- ------------
_HEADER9                            00000000    00000001 =           1. bytes (ABS,CON)

      Value  Global                              Global Defined In Module
      -----  --------------------------------   ------------------------
ASxxxx Linker V03.00 + NoICE + sdld,  page 41.
Hexadecimal  [32-Bits]

Area                                    Addr        Size        Decimal Bytes (Attributes)
--------------------------------        ----        ----        ------- ----- ------------
_HEADERa                            00000000    00000001 =           1. bytes (ABS,CON)

      Value  Global                              Global Defined In Module
      -----  --------------------------------   ------------------------
ASxxxx Linker V03.00 + NoICE + sdld,  page 42.
Hexadecimal  [32-Bits]

Area                                    Addr        Size        Decimal Bytes (Attributes)
--------------------------------        ----        ----        ------- ----- ------------
_HEADERb                            00000000    00000001 =           1. bytes (ABS,CON)

      Value  Global                              Global Defined In Module
      -----  --------------------------------   ------------------------
ASxxxx Linker V03.00 + NoICE + sdld,  page 43.
Hexadecimal  [32-Bits]

Area                                    Addr        Size        Decimal Bytes (Attributes)
--------------------------------        ----        ----        ------- ----- ------------
_HEADERc                            00000000    00000002 =           2. bytes (ABS,CON)

      Value  Global                              Global Defined In Module
      -----  --------------------------------   ------------------------
ASxxxx Linker V03.00 + NoICE + sdld,  page 44.
Hexadecimal  [32-Bits]

Area                                    Addr        Size        Decimal Bytes (Attributes)
--------------------------------        ----        ----        ------- ----- ------------
_HEADERd                            00000000    00000001 =           1. bytes (ABS,CON)

      Value  Global                              Global Defined In Module
      -----  --------------------------------   ------------------------
ASxxxx Linker V03.00 + NoICE + sdld,  page 45.
Hexadecimal  [32-Bits]

Area                                    Addr        Size        Decimal Bytes (Attributes)
--------------------------------        ----        ----        ------- ----- ------------
_HEADERe                            00000000    00000001 =           1. bytes (ABS,CON)

      Value  Global                              Global Defined In Module
      -----  --------------------------------   ------------------------
ASxxxx Linker V03.00 + NoICE + sdld,  page 46.
Hexadecimal  [32-Bits]

Area                                    Addr        Size        Decimal Bytes (Attributes)
--------------------------------        ----        ----        ------- ----- ------------
_HEADERf                            00000000    00000002 =           2. bytes (ABS,CON)

      Value  Global                              Global Defined In Module
      -----  --------------------------------   ------------------------
ASxxxx Linker V03.00 + NoICE + sdld,  page 47.
Hexadecimal  [32-Bits]

Area                                    Addr        Size        Decimal Bytes (Attributes)
--------------------------------        ----        ----        ------- ----- ------------
_HEADER10                           00000000    00000082 =         130. bytes (ABS,CON)

      Value  Global                              Global Defined In Module
      -----  --------------------------------   ------------------------
     00000150  .reset                             Runtime
     00000150  _reset                             Runtime
     00000157  .code_start                        Runtime
     000001B7  _exit                              Runtime
     000001BB  _set_interrupts                    Runtime

ASxxxx Linker V03.00 + NoICE + sdld,  page 48.
Hexadecimal  [32-Bits]

Area                                    Addr        Size        Decimal Bytes (Attributes)
--------------------------------        ----        ----        ------- ----- ------------
_HEADER11                           00000000    00000001 =           1. bytes (ABS,CON)

      Value  Global                              Global Defined In Module
      -----  --------------------------------   ------------------------
ASxxxx Linker V03.00 + NoICE + sdld,  page 49.
Hexadecimal  [32-Bits]

Area                                    Addr        Size        Decimal Bytes (Attributes)
--------------------------------        ----        ----        ------- ----- ------------
_HOME                               000008C3    00002745 =       10053. bytes (REL,CON)

      Value  Global                              Global Defined In Module
      -----  --------------------------------   ------------------------
     000008C3  .memset_simple                     Runtime
     000008CC  .memcpy_simple                     Runtime
     000008E9  .remove_VBL                        Runtime
     000008EC  .remove_int                        Runtime
     00000909  .add_VBL                           Runtime
     0000090C  .add_int                           Runtime
     00000917  .wait_vbl_done                     Runtime
     00000917  _wait_vbl_done                     Runtime
     00000927  .display_off                       Runtime
     00000927  _display_off                       Runtime
     0000093F  _remove_VBL                        Runtime
     0000094A  _add_VBL                           Runtime
     00000955  _actors_update                     actor
     00000CC8  _SetBankedBkgData                  bankdata
     00000CE4  _SetBankedSpriteData               bankdata
     00000D00  _SetBankedBkgTiles                 bankdata
     00000D1C  _SetBankedWinTiles                 bankdata
     00000D38  _ReadBankedFarPtr                  bankdata
     00000D5F  _ReadBankedUWORD                   bankdata
     00000D7B  _MemcpyBanked                      bankdata
     00000D97  _MemcpyVRAMBanked                  bankdata
     00000DB3  _camera_update                     camera
     00000EE6  _load_animations                   data_manager
     00000F45  _events_update                     events
     00001015  _timers_update                     events
     0000109D  _input_update                      input
     000010CC  .sio_ISR                           
     00001126  .timer_ISR                         
     0000113B  _simple_LCD_isr                    interrupts
     00001186  _fullscreen_LCD_isr                interrupts
     000011B7  _VBL_isr                           interrupts
     000011F4  _isqrt                             math
     0000124A  _sine_wave                         math
     0000134A  _dir_lookup                        math
     00001352  _dir_angle_lookup                  math
     00001356  _music_events_update               music_manager
     000013D8  _music_play                        music_manager
     0000144A  _music_mute                        music_manager
     0000145C  _music_update                      music_manager
     000014AB  _sound_stop                        music_manager
     000014DC  _parallax_LCD_isr                  parallax
     00001519  _projectiles_update                projectiles
     000018D2  _projectiles_render                projectiles
     00001A45  _sample_play_isr                   sample_player
     00001AC4  _scroll_load_pending_row           scroll
     00001B50  _scroll_load_row                   scroll
     00001BCA  _scroll_load_col                   scroll
     00001C35  _scroll_load_pending_col           scroll
     00001CC6  _set_bkg_submap                    
     00001D09  _set_xy_win_submap                 
ASxxxx Linker V03.00 + NoICE + sdld,  page 50.
Hexadecimal  [32-Bits]

Area                                    Addr        Size        Decimal Bytes (Attributes)
--------------------------------        ----        ----        ------- ----- ------------
_HOME                               000008C3    00002745 =       10053. bytes (REL,CON)

      Value  Global                              Global Defined In Module
      -----  --------------------------------   ------------------------
     00001D32  .set_xy_win_submap                 
     00001D3B  .set_xy_bkg_submap                 
     00001D4A  .set_xy_submap                     
     00001D90  _on_SIO_receive                    sio
     00001DD1  _SIO_update                        sio
     00001E38  _ui_update                         ui
     00001EF8  _vm_sgb_transfer                   vm_sgb
     00001F46  _vm_load_text                      vm_ui
     0000219B  _vm_beginthread                    vm
     000022C0  _vm_rpn                            vm
     00002984  _vm_call_native                    vm
     0000298E  _VM_STEP                           vm
     000029F8  _script_runner_update              vm
     00002B72  _fill_win_rect                     
     00002B84  _rand                              
     00002B84  _randw                             
     00002BAF  _initrand                          
     00002BB1  .initrand                          
     00002BBA  __mulsuchar                        mul
     00002BC4  __muluschar                        mul
     00002BCE  __mulschar                         mul
     00002BE0  __muluchar                         mul
     00002BEC  __mulint                           mul
     00002C12  _abs                               abs
     00002C21  _set_win_tiles                     
     00002C35  _set_tile_data                     
     00002C3A  _set_bkg_data                      
     00002C3A  _set_win_data                      
     00002C42  _set_sprite_data                   
     00002C72  _reverse                           reverse
     00002CA6  ___call__banked                    far_ptr
     00002CC3  _to_far_ptr                        far_ptr
     00002CFC  _add_LCD                           
     00002D07  .add_LCD                           
     00002D0D  _remove_LCD                        
     00002D18  .remove_LCD                        
     00002D1E  .fill_rect_wtt                     
     00002D27  .fill_rect_btt                     
     00002D74  .copy_vram                         
     00002D88  _get_data                          
     00002D88  _set_data                          
     00002D88  _vmemcpy                           
     00002D9B  _fill_bkg_rect                     
     00002DAD  .padup                             
     00002DAD  _waitpadup                         
     00002DBD  .jpad                              
     00002DBD  _joypad                            
     00002DE5  _waitpad                           
     00002DE8  .wait_pad                          
     00002DEF  ___sdcc_call_hl                    call_hl
     00002DF0  ___memcpy                          memcpy
ASxxxx Linker V03.00 + NoICE + sdld,  page 51.
Hexadecimal  [32-Bits]

Area                                    Addr        Size        Decimal Bytes (Attributes)
--------------------------------        ----        ----        ------- ----- ------------
_HOME                               000008C3    00002745 =       10053. bytes (REL,CON)

      Value  Global                              Global Defined In Module
      -----  --------------------------------   ------------------------
     00002DF0  _memcpy                            memcpy
     00002E33  _memset                            memset
     00002E66  ___sdcc_bcall_ehl                  
     00002E77  __divsuchar                        div
     00002E84  __modsuchar                        div
     00002E8E  __divuschar                        div
     00002EA0  __moduschar                        div
     00002EB0  __divschar                         div
     00002EBC  __modschar                         div
     00002EC6  __divsint                          div
     00002ED7  __modsint                          div
     00002EE6  __divuchar                         div
     00002EF2  __moduchar                         div
     00002EFC  __divuint                          div
     00002F0D  __moduint                          div
     00002F1C  .div8                              div
     00002F1C  .mod8                              div
     00002F24  .div16                             div
     00002F24  .mod16                             div
     00002F5A  .divu8                             div
     00002F5A  .modu8                             div
     00002F5D  .divu16                            div
     00002F5D  .modu16                            div
     00002F9E  _set_bkg_tiles                     
     00002FB2  .set_xy_wtt                        
     00002FBB  .set_xy_btt                        
     00002FCA  .set_xy_tt                         

ASxxxx Linker V03.00 + NoICE + sdld,  page 52.
Hexadecimal  [32-Bits]

Area                                    Addr        Size        Decimal Bytes (Attributes)
--------------------------------        ----        ----        ------- ----- ------------
_INITIALIZER                        00003008    0000000E =          14. bytes (REL,CON)

      Value  Global                              Global Defined In Module
      -----  --------------------------------   ------------------------
ASxxxx Linker V03.00 + NoICE + sdld,  page 53.
Hexadecimal  [32-Bits]

Area                                    Addr        Size        Decimal Bytes (Attributes)
--------------------------------        ----        ----        ------- ----- ------------
_GSINIT                             00003016    00000033 =          51. bytes (REL,CON)

      Value  Global                              Global Defined In Module
      -----  --------------------------------   ------------------------
     00003016  gsinit                             Runtime

ASxxxx Linker V03.00 + NoICE + sdld,  page 54.
Hexadecimal  [32-Bits]

Area                                    Addr        Size        Decimal Bytes (Attributes)
--------------------------------        ----        ----        ------- ----- ------------
_GSFINAL                            00003049    00000001 =           1. bytes (REL,CON)

      Value  Global                              Global Defined In Module
      -----  --------------------------------   ------------------------
ASxxxx Linker V03.00 + NoICE + sdld,  page 55.
Hexadecimal  [32-Bits]

Area                                    Addr        Size        Decimal Bytes (Attributes)
--------------------------------        ----        ----        ------- ----- ------------
_DATA                               0000C0A0    000018F6 =        6390. bytes (REL,CON)

      Value  Global                              Global Defined In Module
      -----  --------------------------------   ------------------------
     0000C0A0  __cpu                              Runtime
     0000C0A1  __is_GBA                           Runtime
     0000C0A2  .mode                              Runtime
     0000C0A3  .sys_time                          Runtime
     0000C0A3  _sys_time                          Runtime
     0000C0A5  .int_0x40                          Runtime
     0000C0B9  _actors                            actor
     0000C4D3  _actors_active_head                actor
     0000C4D5  _actors_inactive_head              actor
     0000C4D7  _screen_x                          actor
     0000C4D8  _screen_y                          actor
     0000C4D9  _invalid                           actor
     0000C4DB  _player_moving                     actor
     0000C4DC  _player_iframes                    actor
     0000C4DD  _player_collision_actor            actor
     0000C4DF  _emote_actor                       actor
     0000C4E1  _emote_timer                       actor
     0000C4E2  _allocated_hardware_sprites        actor
     0000C4EA  _camera_x                          camera
     0000C4EC  _camera_y                          camera
     0000C4EE  _camera_offset_x                   camera
     0000C4EF  _camera_offset_y                   camera
     0000C4F0  _camera_deadzone_x                 camera
     0000C4F1  _camera_deadzone_y                 camera
     0000C4F2  _camera_settings                   camera
     0000C4F6  _current_scene                     data_manager
     0000C4F9  _image_bank                        data_manager
     0000C4FA  _image_ptr                         data_manager
     0000C4FC  _image_attr_bank                   data_manager
     0000C4FD  _image_attr_ptr                    data_manager
     0000C4FF  _collision_bank                    data_manager
     0000C500  _collision_ptr                     data_manager
     0000C502  _image_tile_width                  data_manager
     0000C503  _image_tile_height                 data_manager
     0000C504  _image_width                       data_manager
     0000C506  _image_height                      data_manager
     0000C508  _sprites_len                       data_manager
     0000C509  _actors_len                        data_manager
     0000C50A  _projectiles_len                   data_manager
     0000C50B  _player_sprite_len                 data_manager
     0000C50C  _scene_type                        data_manager
     0000C50D  _scene_LCD_type                    data_manager
     0000C50E  _scene_stack                       data_manager
     0000C54E  _scene_stack_ptr                   data_manager
     0000C553  _input_events                      events
     0000C57B  _input_slots                       events
     0000C583  _timer_events                      events
     0000C597  _timer_values                      events
     0000C59F  _fade_running                      fade_manager
     0000C5A0  _fade_frames_per_step              fade_manager
ASxxxx Linker V03.00 + NoICE + sdld,  page 56.
Hexadecimal  [32-Bits]

Area                                    Addr        Size        Decimal Bytes (Attributes)
--------------------------------        ----        ----        ------- ----- ------------
_DATA                               0000C0A0    000018F6 =        6390. bytes (REL,CON)

      Value  Global                              Global Defined In Module
      -----  --------------------------------   ------------------------
     0000C5A1  _fade_timer                        fade_manager
     0000C5A4  _joypads                           input
     0000C5A9  _frame_joy                         input
     0000C5AA  _last_joy                          input
     0000C5AB  _recent_joy                        input
     0000C5AC  _SIO_status                        
     0000C5AD  _link_byte_sent                    
     0000C5AE  _link_next_mode                    
     0000C5AF  _save_blob_size                    load_save
     0000C5B1  _current_track                     music_manager
     0000C5B3  _tone_frames                       music_manager
     0000C5B4  _channel_mask                      music_manager
     0000C5B5  _sound_channel                     music_manager
     0000C5B6  _current_track_bank                music_manager
     0000C5B7  _routine_queue                     music_manager
     0000C5BB  _routine_queue_head                music_manager
     0000C5BC  _routine_queue_tail                music_manager
     0000C5BD  _music_events                      music_manager
     0000C5D1  _DMG_palette                       palette
     0000C5D4  _SprPalette                        palette
     0000C614  _parallax_rows                     parallax
     0000C626  _parallax_row                      parallax
     0000C628  _projectiles                       projectiles
     0000C6E1  _projectile_defs                   projectiles
     0000C754  _projectiles_active_head           projectiles
     0000C756  _projectiles_inactive_head         projectiles
     0000C75D  _scroll_x                          scroll
     0000C75F  _scroll_y                          scroll
     0000C761  _draw_scroll_x                     scroll
     0000C763  _draw_scroll_y                     scroll
     0000C765  _scroll_x_max                      scroll
     0000C767  _scroll_y_max                      scroll
     0000C769  _scroll_offset_x                   scroll
     0000C76A  _scroll_offset_y                   scroll
     0000C76B  _pending_h_x                       scroll
     0000C76C  _pending_h_y                       scroll
     0000C76D  _pending_h_i                       scroll
     0000C76E  _pending_w_x                       scroll
     0000C76F  _pending_w_y                       scroll
     0000C770  _pending_w_i                       scroll
     0000C771  _current_row                       scroll
     0000C773  _new_row                           scroll
     0000C775  _current_col                       scroll
     0000C777  _new_col                           scroll
     0000C779  .image_tile_width                  
     0000C77A  _link_operation_mode               sio
     0000C77B  _link_packet                       sio
     0000C79B  _link_packet_len                   sio
     0000C79C  _link_packet_ptr                   sio
     0000C79E  _link_packet_received              sio
     0000C79F  _link_packet_snd_len               sio
ASxxxx Linker V03.00 + NoICE + sdld,  page 57.
Hexadecimal  [32-Bits]

Area                                    Addr        Size        Decimal Bytes (Attributes)
--------------------------------        ----        ----        ------- ----- ------------
_DATA                               0000C0A0    000018F6 =        6390. bytes (REL,CON)

      Value  Global                              Global Defined In Module
      -----  --------------------------------   ------------------------
     0000C7A0  _link_packet_snd_ptr               sio
     0000C7A2  _link_packet_sent                  sio
     0000C7A3  __is_CGB                           system
     0000C7A4  __is_SGB                           system
     0000C7A5  _triggers                          trigger
     0000C89D  _last_trigger_tx                   trigger
     0000C89E  _last_trigger_ty                   trigger
     0000C89F  _last_trigger                      trigger
     0000C8A0  _win_pos_x                         ui
     0000C8A1  _win_dest_pos_x                    ui
     0000C8A2  _win_pos_y                         ui
     0000C8A3  _win_dest_pos_y                    ui
     0000C8A4  _win_speed                         ui
     0000C8A5  _text_drawn                        ui
     0000C8A6  _current_text_speed                ui
     0000C8A7  _text_wait                         ui
     0000C8A8  _text_in_speed                     ui
     0000C8A9  _text_out_speed                    ui
     0000C8AA  _text_draw_speed                   ui
     0000C8AB  _text_ff_joypad                    ui
     0000C8AC  _text_ff                           ui
     0000C8AD  _text_bkg_fill                     ui
     0000C8AE  _ui_text_data                      ui
     0000C9B8  _vwf_current_mask                  ui
     0000C9B9  _vwf_current_rotate                ui
     0000C9BA  _vwf_inverse_map                   ui
     0000C9BB  _vwf_direction                     ui
     0000C9BC  _vwf_current_font_desc             ui
     0000C9C4  _vwf_current_font_bank             ui
     0000C9C5  _vwf_current_font_idx              ui
     0000C9C6  _text_render_base_addr             ui
     0000C9C8  _text_scroll_addr                  ui
     0000C9CA  _text_scroll_width                 ui
     0000C9CB  _text_scroll_height                ui
     0000C9CC  _text_scroll_fill                  ui
     0000C9D2  __itoa_fmt_len                     vm_ui_a
     0000C9D3  .itoa_fmt_buf                      vm_ui_a
     0000C9D6  _CTXS                              vm
     0000CB06  _first_ctx                         vm
     0000CB08  _free_ctxs                         vm
     0000CB0A  _vm_lock_state                     vm
     0000CB0B  _vm_loaded_state                   vm
     0000CB0C  _vm_exception_code                 vm
     0000CB0D  _vm_exception_params_length        vm
     0000CB0E  _vm_exception_params_bank          vm
     0000CB0F  _vm_exception_params_offset        vm
     0000CB11  _script_memory                     vm
     0000D919  _grounded                          platform
     0000D91A  _on_ladder                         platform
     0000D91B  _pl_vel_x                          platform
     0000D91D  _pl_vel_y                          platform
ASxxxx Linker V03.00 + NoICE + sdld,  page 58.
Hexadecimal  [32-Bits]

Area                                    Addr        Size        Decimal Bytes (Attributes)
--------------------------------        ----        ----        ------- ----- ------------
_DATA                               0000C0A0    000018F6 =        6390. bytes (REL,CON)

      Value  Global                              Global Defined In Module
      -----  --------------------------------   ------------------------
     0000D91F  _plat_min_vel                      platform
     0000D921  _plat_walk_vel                     platform
     0000D923  _plat_climb_vel                    platform
     0000D925  _plat_run_vel                      platform
     0000D927  _plat_walk_acc                     platform
     0000D929  _plat_run_acc                      platform
     0000D92B  _plat_dec                          platform
     0000D92D  _plat_jump_vel                     platform
     0000D92F  _plat_grav                         platform
     0000D931  _plat_hold_grav                    platform
     0000D933  _plat_max_fall_vel                 platform
     0000D935  _shooter_reached_end               shmup
     0000D936  _shooter_dest                      shmup
     0000D938  _shooter_direction                 shmup
     0000D939  _topdown_grid                      topdown
     0000D93A  gbt_playing                        
     0000D93B  gbt_song                           
     0000D93D  gbt_bank                           
     0000D93E  gbt_speed                          
     0000D93F  gbt_temp_play_data                 
     0000D94B  gbt_loop_enabled                   
     0000D94C  gbt_ticks_elapsed                  
     0000D94D  gbt_current_step                   
     0000D94E  gbt_current_pattern                
     0000D94F  gbt_current_step_data_ptr          
     0000D951  gbt_channels_enabled               
     0000D952  gbt_pan                            
     0000D956  gbt_vol                            
     0000D95A  gbt_instr                          
     0000D95E  gbt_freq                           
     0000D964  __current_ch3_wave                 
     0000D964  __gbt_channel3_loaded_instrument   
     0000D964  gbt_channel3_loaded_instrument     
     0000D965  gbt_arpeggio_freq_index            
     0000D96E  gbt_arpeggio_enabled               
     0000D971  gbt_arpeggio_tick                  
     0000D974  gbt_sweep                          
     0000D977  gbt_cut_note_tick                  
     0000D97B  gbt_have_to_stop_next_step         
     0000D97C  gbt_update_pattern_pointers        
     0000D97D  .randhi                            
     0000D97E  .randlo                            
     0000D97F  ___call_banked_addr                far_ptr
     0000D97F  ___call_banked_ptr                 far_ptr
     0000D981  ___call_banked_bank                far_ptr
     0000D983  .int_0x48                          
     0000D993  ___current_metasprite              Metasprites
     0000D995  ___current_base_tile               Metasprites

ASxxxx Linker V03.00 + NoICE + sdld,  page 59.
Hexadecimal  [32-Bits]

Area                                    Addr        Size        Decimal Bytes (Attributes)
--------------------------------        ----        ----        ------- ----- ------------
_INITIALIZED                        0000D996    0000000E =          14. bytes (REL,CON)

      Value  Global                              Global Defined In Module
      -----  --------------------------------   ------------------------
     0000D996  _fade_style                        fade_manager
     0000D997  _game_time                         game_time
     0000D998  _hide_sprites                      interrupts
     0000D999  _ISR_counter                       music_manager
     0000D99A  _play_bank                         sample_player
     0000D99B  _play_sample                       sample_player
     0000D99D  _play_length                       sample_player
     0000D99F  _triggers_len                      trigger
     0000D9A0  _exchange_state                    vm_sio
     0000D9A1  _last_hit_trigger                  pointnclick
     0000D9A2  _shooter_scroll_speed              shmup
     0000D9A3  ___render_shadow_OAM               Metasprites
ASxxxx Linker V03.00 + NoICE + sdld,  page 60.
Hexadecimal  [32-Bits]

Area                                    Addr        Size        Decimal Bytes (Attributes)
--------------------------------        ----        ----        ------- ----- ------------
_HRAM12                             00000000    00000003 =           3. bytes (ABS,CON)

      Value  Global                              Global Defined In Module
      -----  --------------------------------   ------------------------
     0000FF90  __current_bank                     Runtime
     0000FF92  __shadow_OAM_base                  Runtime

ASxxxx Linker V03.00 + NoICE + sdld,  page 61.
Hexadecimal  [32-Bits]

Area                                    Addr        Size        Decimal Bytes (Attributes)
--------------------------------        ----        ----        ------- ----- ------------
_CODE_1                             00014000    00003199 =       12697. bytes (REL,CON)

      Value  Global                              Global Defined In Module
      -----  --------------------------------   ------------------------
     00014000  _actors_init                       actor
     00014034  _emote_offsets                     actor
     00014043  _emote_metasprite                  actor
     0001404F  _player_init                       actor
     00014062  _deactivate_actor                  actor
     00014169  _activate_actor                    actor
     00014294  _activate_actors_in_row            actor
     0001438B  _activate_actors_in_col            actor
     000144DC  _actor_set_frames                  actor
     00014530  _actor_set_frame_offset            actor
     0001456D  _actor_get_frame_offset            actor
     00014580  _actor_set_anim_idle               actor
     000145AE  _actor_set_anim_moving             actor
     000145DF  _actor_set_dir                     actor
     00014644  _actor_at_tile                     actor
     00014719  _actor_in_front_of_player          actor
     00014800  _actor_overlapping_player          actor
     00014A98  _actor_overlapping_bb              actor
     00014CB6  _actors_handle_player_collision    actor
     00014D41  _check_collision_in_direction      actor
     00015480  _camera_init                       camera
     0001549E  _camera_reset                      camera
     000154AE  _remove_LCD_ISRs                   interrupts
     000154CF  _parallax_init                     parallax
     000154F3  _scroll_init                       scroll
     0001551D  _scroll_reset                      scroll
     0001553D  _scroll_update                     scroll
     00015654  _scroll_viewport                   scroll
     00015AE8  _scroll_repaint                    scroll
     00015B46  _scroll_render_rows                scroll
     00015BCE  _scroll_queue_row                  scroll
     00015BF3  _scroll_queue_col                  scroll
     00015C3F  _ui_swap_tiles                     
     00015C89  _ui_print_make_mask_lr             
     00015CA5  _ui_print_make_mask_rl             
     00015CC1  _ui_init                           ui
     00015D7A  _ui_load_tiles                     ui
     00015DD1  _ui_draw_frame                     ui
     00015E62  _ui_print_reset                    ui
     00015EB8  _ui_print_render                   ui
     00016159  _ui_draw_text_buffer_char          ui
     00016632  _ui_run_menu                       ui
     000168BC  _ui_run_modal                      ui
     00016AC2  gbt_channel_1_handle               
     00016C9C  gbt_channel_2_handle               
     00016E6E  gbt_channel_3_handle               
     00017047  gbt_channel_4_handle               
     00017160  gbt_update_bank1                   
     0001717C  gbt_update_effects_bank1           

ASxxxx Linker V03.00 + NoICE + sdld,  page 62.
Hexadecimal  [32-Bits]

Area                                    Addr        Size        Decimal Bytes (Attributes)
--------------------------------        ----        ----        ------- ----- ------------
_CODE_24                            00184000    00003241 =       12865. bytes (REL,CON)

      Value  Global                              Global Defined In Module
      -----  --------------------------------   ------------------------
     00184000  _bootstrap_script                  
     0018400B  ___func_background_0               background_0
     0018400B  _background_0                      background_0
     00184019  ___func_background_1               background_1
     00184019  _background_1                      background_1
     00184027  ___func_background_10              background_10
     00184027  _background_10                     background_10
     00184035  ___func_background_11              background_11
     00184035  _background_11                     background_11
     00184043  ___func_background_12              background_12
     00184043  _background_12                     background_12
     00184051  ___func_background_13              background_13
     00184051  _background_13                     background_13
     0018405F  ___func_background_14              background_14
     0018405F  _background_14                     background_14
     0018406D  ___func_background_15              background_15
     0018406D  _background_15                     background_15
     0018407B  ___func_background_16              background_16
     0018407B  _background_16                     background_16
     00184089  ___func_background_17              background_17
     00184089  _background_17                     background_17
     00184097  ___func_background_18              background_18
     00184097  _background_18                     background_18
     001840A5  ___func_background_19              background_19
     001840A5  _background_19                     background_19
     001840B3  ___func_background_2               background_2
     001840B3  _background_2                      background_2
     001840C1  ___func_background_20              background_20
     001840C1  _background_20                     background_20
     001840CF  ___func_background_21              background_21
     001840CF  _background_21                     background_21
     001840DD  ___func_background_22              background_22
     001840DD  _background_22                     background_22
     001840EB  ___func_background_23              background_23
     001840EB  _background_23                     background_23
     001840F9  ___func_background_24              background_24
     001840F9  _background_24                     background_24
     00184107  ___func_background_25              background_25
     00184107  _background_25                     background_25
     00184115  ___func_background_26              background_26
     00184115  _background_26                     background_26
     00184123  ___func_background_27              background_27
     00184123  _background_27                     background_27
     00184131  ___func_background_28              background_28
     00184131  _background_28                     background_28
     0018413F  ___func_background_29              background_29
     0018413F  _background_29                     background_29
     0018414D  ___func_background_3               background_3
     0018414D  _background_3                      background_3
     0018415B  ___func_background_30              background_30
ASxxxx Linker V03.00 + NoICE + sdld,  page 63.
Hexadecimal  [32-Bits]

Area                                    Addr        Size        Decimal Bytes (Attributes)
--------------------------------        ----        ----        ------- ----- ------------
_CODE_24                            00184000    00003241 =       12865. bytes (REL,CON)

      Value  Global                              Global Defined In Module
      -----  --------------------------------   ------------------------
     0018415B  _background_30                     background_30
     00184169  ___func_background_31              background_31
     00184169  _background_31                     background_31
     00184177  ___func_background_32              background_32
     00184177  _background_32                     background_32
     00184185  ___func_background_33              background_33
     00184185  _background_33                     background_33
     00184193  ___func_background_34              background_34
     00184193  _background_34                     background_34
     001841A1  ___func_background_35              background_35
     001841A1  _background_35                     background_35
     001841AF  ___func_background_36              background_36
     001841AF  _background_36                     background_36
     001841BD  ___func_background_37              background_37
     001841BD  _background_37                     background_37
     001841CB  ___func_background_38              background_38
     001841CB  _background_38                     background_38
     001841D9  ___func_background_39              background_39
     001841D9  _background_39                     background_39
     001841E7  ___func_background_4               background_4
     001841E7  _background_4                      background_4
     001841F5  ___func_background_40              background_40
     001841F5  _background_40                     background_40
     00184203  ___func_background_41              background_41
     00184203  _background_41                     background_41
     00184211  ___func_background_42              background_42
     00184211  _background_42                     background_42
     0018421F  ___func_background_43              background_43
     0018421F  _background_43                     background_43
     0018422D  ___func_background_5               background_5
     0018422D  _background_5                      background_5
     0018423B  ___func_background_6               background_6
     0018423B  _background_6                      background_6
     00184249  ___func_background_7               background_7
     00184249  _background_7                      background_7
     00184257  ___func_background_8               background_8
     00184257  _background_8                      background_8
     00184265  ___func_background_9               background_9
     00184265  _background_9                      background_9
     00184273  ___func_cursor_image               cursor_image
     00184273  _cursor_image                      cursor_image
     00184283  ___func_emote_0                    emote_0
     00184283  _emote_0                           emote_0
     001842C3  ___func_palette_11                 palette_11
     001842C3  _palette_11                        palette_11
     00184306  ___func_palette_12                 palette_12
     00184306  _palette_12                        palette_12
     00184349  ___func_palette_13                 palette_13
     00184349  _palette_13                        palette_13
     0018438C  ___func_palette_14                 palette_14
     0018438C  _palette_14                        palette_14
ASxxxx Linker V03.00 + NoICE + sdld,  page 64.
Hexadecimal  [32-Bits]

Area                                    Addr        Size        Decimal Bytes (Attributes)
--------------------------------        ----        ----        ------- ----- ------------
_CODE_24                            00184000    00003241 =       12865. bytes (REL,CON)

      Value  Global                              Global Defined In Module
      -----  --------------------------------   ------------------------
     001843CF  ___func_palette_15                 palette_15
     001843CF  _palette_15                        palette_15
     00184412  ___func_palette_16                 palette_16
     00184412  _palette_16                        palette_16
     00184455  ___func_palette_17                 palette_17
     00184455  _palette_17                        palette_17
     00184498  ___func_palette_18                 palette_18
     00184498  _palette_18                        palette_18
     001844DB  ___func_palette_19                 palette_19
     001844DB  _palette_19                        palette_19
     0018451E  ___func_palette_2                  palette_2
     0018451E  _palette_2                         palette_2
     00184561  ___func_palette_20                 palette_20
     00184561  _palette_20                        palette_20
     001845A4  ___func_palette_21                 palette_21
     001845A4  _palette_21                        palette_21
     001845E7  ___func_palette_22                 palette_22
     001845E7  _palette_22                        palette_22
     0018462A  ___func_palette_23                 palette_23
     0018462A  _palette_23                        palette_23
     0018466D  ___func_palette_24                 palette_24
     0018466D  _palette_24                        palette_24
     001846B0  ___func_palette_25                 palette_25
     001846B0  _palette_25                        palette_25
     001846F3  ___func_palette_26                 palette_26
     001846F3  _palette_26                        palette_26
     00184736  ___func_palette_27                 palette_27
     00184736  _palette_27                        palette_27
     00184779  ___func_palette_28                 palette_28
     00184779  _palette_28                        palette_28
     001847BC  ___func_palette_29                 palette_29
     001847BC  _palette_29                        palette_29
     001847FF  ___func_palette_3                  palette_3
     001847FF  _palette_3                         palette_3
     00184842  ___func_palette_30                 palette_30
     00184842  _palette_30                        palette_30
     00184885  ___func_palette_31                 palette_31
     00184885  _palette_31                        palette_31
     001848C8  ___func_palette_32                 palette_32
     001848C8  _palette_32                        palette_32
     0018490B  ___func_palette_33                 palette_33
     0018490B  _palette_33                        palette_33
     0018494E  ___func_palette_34                 palette_34
     0018494E  _palette_34                        palette_34
     00184991  ___func_palette_35                 palette_35
     00184991  _palette_35                        palette_35
     001849D4  ___func_palette_36                 palette_36
     001849D4  _palette_36                        palette_36
     00184A17  ___func_palette_37                 palette_37
     00184A17  _palette_37                        palette_37
     00184A5A  ___func_palette_38                 palette_38
ASxxxx Linker V03.00 + NoICE + sdld,  page 65.
Hexadecimal  [32-Bits]

Area                                    Addr        Size        Decimal Bytes (Attributes)
--------------------------------        ----        ----        ------- ----- ------------
_CODE_24                            00184000    00003241 =       12865. bytes (REL,CON)

      Value  Global                              Global Defined In Module
      -----  --------------------------------   ------------------------
     00184A5A  _palette_38                        palette_38
     00184A9D  ___func_palette_39                 palette_39
     00184A9D  _palette_39                        palette_39
     00184AE0  ___func_palette_4                  palette_4
     00184AE0  _palette_4                         palette_4
     00184B23  ___func_palette_40                 palette_40
     00184B23  _palette_40                        palette_40
     00184B66  ___func_palette_41                 palette_41
     00184B66  _palette_41                        palette_41
     00184BA9  ___func_palette_42                 palette_42
     00184BA9  _palette_42                        palette_42
     00184BEC  ___func_palette_43                 palette_43
     00184BEC  _palette_43                        palette_43
     00184C2F  ___func_palette_44                 palette_44
     00184C2F  _palette_44                        palette_44
     00184C72  ___func_palette_5                  palette_5
     00184C72  _palette_5                         palette_5
     00184CB5  ___func_palette_6                  palette_6
     00184CB5  _palette_6                         palette_6
     00184CF8  ___func_palette_7                  palette_7
     00184CF8  _palette_7                         palette_7
     00184D3B  ___func_palette_8                  palette_8
     00184D3B  _palette_8                         palette_8
     00184D7E  ___func_palette_9                  palette_9
     00184D7E  _palette_9                         palette_9
     00184DC1  ___func_scene_0                    scene_0
     00184DC1  _scene_0                           scene_0
     00184DFB  ___func_scene_1                    scene_1
     00184DFB  _scene_1                           scene_1
     00184E35  ___func_scene_10                   scene_10
     00184E35  _scene_10                          scene_10
     00184E6F  ___func_scene_11                   scene_11
     00184E6F  _scene_11                          scene_11
     00184EA9  ___func_scene_12_sprites           scene_12_sprites
     00184EA9  _scene_12_sprites                  scene_12_sprites
     00184EC7  ___func_scene_12_triggers          scene_12_triggers
     00184EC7  _scene_12_triggers                 scene_12_triggers
     00184ED7  ___func_scene_12                   scene_12
     00184ED7  _scene_12                          scene_12
     00184F11  ___func_scene_13                   scene_13
     00184F11  _scene_13                          scene_13
     00184F4B  ___func_scene_14_projectiles       scene_14_projectiles
     00184F4B  _scene_14_projectiles              scene_14_projectiles
     00184F79  ___func_scene_14_sprites           scene_14_sprites
     00184F79  _scene_14_sprites                  scene_14_sprites
     00184F9A  ___func_scene_14_triggers          scene_14_triggers
     00184F9A  _scene_14_triggers                 scene_14_triggers
     00184FAA  ___func_scene_14                   scene_14
     00184FAA  _scene_14                          scene_14
     00184FE4  ___func_scene_15                   scene_15
     00184FE4  _scene_15                          scene_15
ASxxxx Linker V03.00 + NoICE + sdld,  page 66.
Hexadecimal  [32-Bits]

Area                                    Addr        Size        Decimal Bytes (Attributes)
--------------------------------        ----        ----        ------- ----- ------------
_CODE_24                            00184000    00003241 =       12865. bytes (REL,CON)

      Value  Global                              Global Defined In Module
      -----  --------------------------------   ------------------------
     0018501E  ___func_scene_16_sprites           scene_16_sprites
     0018501E  _scene_16_sprites                  scene_16_sprites
     0018503C  ___func_scene_16_triggers          scene_16_triggers
     0018503C  _scene_16_triggers                 scene_16_triggers
     00185044  ___func_scene_16                   scene_16
     00185044  _scene_16                          scene_16
     0018507E  ___func_scene_17                   scene_17
     0018507E  _scene_17                          scene_17
     001850B8  ___func_scene_18_projectiles       scene_18_projectiles
     001850B8  _scene_18_projectiles              scene_18_projectiles
     001850E6  ___func_scene_18_sprites           scene_18_sprites
     001850E6  _scene_18_sprites                  scene_18_sprites
     00185104  ___func_scene_18_triggers          scene_18_triggers
     00185104  _scene_18_triggers                 scene_18_triggers
     0018510C  ___func_scene_18                   scene_18
     0018510C  _scene_18                          scene_18
     00185146  ___func_scene_19                   scene_19
     00185146  _scene_19                          scene_19
     00185180  ___func_scene_2_actors             scene_2_actors
     00185180  _scene_2_actors                    scene_2_actors
     001851B2  ___func_scene_2                    scene_2
     001851B2  _scene_2                           scene_2
     001851EC  ___func_scene_20_triggers          scene_20_triggers
     001851EC  _scene_20_triggers                 scene_20_triggers
     001851F4  ___func_scene_20                   scene_20
     001851F4  _scene_20                          scene_20
     0018522E  ___func_scene_21                   scene_21
     0018522E  _scene_21                          scene_21
     00185268  ___func_scene_22_sprites           scene_22_sprites
     00185268  _scene_22_sprites                  scene_22_sprites
     00185289  ___func_scene_22_triggers          scene_22_triggers
     00185289  _scene_22_triggers                 scene_22_triggers
     00185299  ___func_scene_22                   scene_22
     00185299  _scene_22                          scene_22
     001852D3  ___func_scene_23                   scene_23
     001852D3  _scene_23                          scene_23
     0018530D  ___func_scene_24_sprites           scene_24_sprites
     0018530D  _scene_24_sprites                  scene_24_sprites
     00185334  ___func_scene_24_triggers          scene_24_triggers
     00185334  _scene_24_triggers                 scene_24_triggers
     00185344  ___func_scene_24                   scene_24
     00185344  _scene_24                          scene_24
     0018537E  ___func_scene_25                   scene_25
     0018537E  _scene_25                          scene_25
     001853B8  ___func_scene_26_triggers          scene_26_triggers
     001853B8  _scene_26_triggers                 scene_26_triggers
     001853D0  ___func_scene_26                   scene_26
     001853D0  _scene_26                          scene_26
     0018540A  ___func_scene_27                   scene_27
     0018540A  _scene_27                          scene_27
     00185444  ___func_scene_28_sprites           scene_28_sprites
ASxxxx Linker V03.00 + NoICE + sdld,  page 67.
Hexadecimal  [32-Bits]

Area                                    Addr        Size        Decimal Bytes (Attributes)
--------------------------------        ----        ----        ------- ----- ------------
_CODE_24                            00184000    00003241 =       12865. bytes (REL,CON)

      Value  Global                              Global Defined In Module
      -----  --------------------------------   ------------------------
     00185444  _scene_28_sprites                  scene_28_sprites
     0018545C  ___func_scene_28_triggers          scene_28_triggers
     0018545C  _scene_28_triggers                 scene_28_triggers
     00185464  ___func_scene_28                   scene_28
     00185464  _scene_28                          scene_28
     0018549E  ___func_scene_29                   scene_29
     0018549E  _scene_29                          scene_29
     001854D8  ___func_scene_3_actors             scene_3_actors
     001854D8  _scene_3_actors                    scene_3_actors
     0018550A  ___func_scene_3                    scene_3
     0018550A  _scene_3                           scene_3
     00185544  ___func_scene_30_sprites           scene_30_sprites
     00185544  _scene_30_sprites                  scene_30_sprites
     00185565  ___func_scene_30                   scene_30
     00185565  _scene_30                          scene_30
     0018559F  ___func_scene_31                   scene_31
     0018559F  _scene_31                          scene_31
     001855D9  ___func_scene_32_sprites           scene_32_sprites
     001855D9  _scene_32_sprites                  scene_32_sprites
     001855FD  ___func_scene_32_triggers          scene_32_triggers
     001855FD  _scene_32_triggers                 scene_32_triggers
     00185615  ___func_scene_32                   scene_32
     00185615  _scene_32                          scene_32
     0018564F  ___func_scene_33                   scene_33
     0018564F  _scene_33                          scene_33
     00185689  ___func_scene_34_sprites           scene_34_sprites
     00185689  _scene_34_sprites                  scene_34_sprites
     001856AD  ___func_scene_34_triggers          scene_34_triggers
     001856AD  _scene_34_triggers                 scene_34_triggers
     001856BD  ___func_scene_34                   scene_34
     001856BD  _scene_34                          scene_34
     001856F7  ___func_scene_35                   scene_35
     001856F7  _scene_35                          scene_35
     00185731  ___func_scene_36_sprites           scene_36_sprites
     00185731  _scene_36_sprites                  scene_36_sprites
     00185749  ___func_scene_36_triggers          scene_36_triggers
     00185749  _scene_36_triggers                 scene_36_triggers
     00185751  ___func_scene_36                   scene_36
     00185751  _scene_36                          scene_36
     0018578B  ___func_scene_37                   scene_37
     0018578B  _scene_37                          scene_37
     001857C5  ___func_scene_38                   scene_38
     001857C5  _scene_38                          scene_38
     001857FF  ___func_scene_39_actors            scene_39_actors
     001857FF  _scene_39_actors                   scene_39_actors
     00185831  ___func_scene_39_sprites           scene_39_sprites
     00185831  _scene_39_sprites                  scene_39_sprites
     00185834  ___func_scene_39                   scene_39
     00185834  _scene_39                          scene_39
     0018586E  ___func_scene_4                    scene_4
     0018586E  _scene_4                           scene_4
ASxxxx Linker V03.00 + NoICE + sdld,  page 68.
Hexadecimal  [32-Bits]

Area                                    Addr        Size        Decimal Bytes (Attributes)
--------------------------------        ----        ----        ------- ----- ------------
_CODE_24                            00184000    00003241 =       12865. bytes (REL,CON)

      Value  Global                              Global Defined In Module
      -----  --------------------------------   ------------------------
     001858A8  ___func_scene_40_actors            scene_40_actors
     001858A8  _scene_40_actors                   scene_40_actors
     001858DA  ___func_scene_40_sprites           scene_40_sprites
     001858DA  _scene_40_sprites                  scene_40_sprites
     001858DD  ___func_scene_40                   scene_40
     001858DD  _scene_40                          scene_40
     00185917  ___func_scene_41_actors            scene_41_actors
     00185917  _scene_41_actors                   scene_41_actors
     00185949  ___func_scene_41_sprites           scene_41_sprites
     00185949  _scene_41_sprites                  scene_41_sprites
     0018594C  ___func_scene_41                   scene_41
     0018594C  _scene_41                          scene_41
     00185986  ___func_scene_42_actors            scene_42_actors
     00185986  _scene_42_actors                   scene_42_actors
     001859B8  ___func_scene_42_sprites           scene_42_sprites
     001859B8  _scene_42_sprites                  scene_42_sprites
     001859BB  ___func_scene_42                   scene_42
     001859BB  _scene_42                          scene_42
     001859F5  ___func_scene_43                   scene_43
     001859F5  _scene_43                          scene_43
     00185A2F  ___func_scene_44                   scene_44
     00185A2F  _scene_44                          scene_44
     00185A69  ___func_scene_45_sprites           scene_45_sprites
     00185A69  _scene_45_sprites                  scene_45_sprites
     00185A6F  ___func_scene_45                   scene_45
     00185A6F  _scene_45                          scene_45
     00185AA9  ___func_scene_5                    scene_5
     00185AA9  _scene_5                           scene_5
     00185AE3  ___func_scene_6_actors             scene_6_actors
     00185AE3  _scene_6_actors                    scene_6_actors
     00185B15  ___func_scene_6_sprites            scene_6_sprites
     00185B15  _scene_6_sprites                   scene_6_sprites
     00185B18  ___func_scene_6                    scene_6
     00185B18  _scene_6                           scene_6
     00185B52  ___func_scene_7                    scene_7
     00185B52  _scene_7                           scene_7
     00185B8C  ___func_scene_8_projectiles        scene_8_projectiles
     00185B8C  _scene_8_projectiles               scene_8_projectiles
     00185BA3  ___func_scene_8_sprites            scene_8_sprites
     00185BA3  _scene_8_sprites                   scene_8_sprites
     00185BBB  ___func_scene_8_triggers           scene_8_triggers
     00185BBB  _scene_8_triggers                  scene_8_triggers
     00185BC3  ___func_scene_8                    scene_8
     00185BC3  _scene_8                           scene_8
     00185BFD  ___func_scene_9                    scene_9
     00185BFD  _scene_9                           scene_9
     00185C37  _script_input_1                    script_input_1
     00185C66  _script_input_17                   script_input_17
     00185C95  _script_s1_init                    script_s1_init
     00185CBF  _script_s10a12_interact            script_s10a12_interact
     00185CD5  _script_s10a12_update              script_s10a12_update
ASxxxx Linker V03.00 + NoICE + sdld,  page 69.
Hexadecimal  [32-Bits]

Area                                    Addr        Size        Decimal Bytes (Attributes)
--------------------------------        ----        ----        ------- ----- ------------
_CODE_24                            00184000    00003241 =       12865. bytes (REL,CON)

      Value  Global                              Global Defined In Module
      -----  --------------------------------   ------------------------
     00185CE3  _script_s10a14_interact            script_s10a14_interact
     00185CF9  _script_s10a14_update              script_s10a14_update
     00185D07  _script_s10a19_interact            script_s10a19_interact
     00185D1D  _script_s10a19_update              script_s10a19_update
     00185D2B  _script_s10a6_interact             script_s10a6_interact
     00185D41  _script_s10a6_update               script_s10a6_update
     00185D4F  _script_s12a6_interact             script_s12a6_interact
     00185D65  _script_s12a6_update               script_s12a6_update
     00185D73  _script_s12t1_interact             script_s12t1_interact
     00185D93  _script_s14a15_interact            script_s14a15_interact
     00185DA9  _script_s14a15_update              script_s14a15_update
     00185DB7  _script_s14a18_interact            script_s14a18_interact
     00185DCD  _script_s14a18_update              script_s14a18_update
     00185DDB  _script_s14a5_interact             script_s14a5_interact
     00185DF1  _script_s14a5_update               script_s14a5_update
     00185DFF  _script_s14a8_interact             script_s14a8_interact
     00185E15  _script_s14a8_update               script_s14a8_update
     00185E23  _script_s14t1_interact             script_s14t1_interact
     00185E43  _script_s16a10_interact            script_s16a10_interact
     00185E59  _script_s16a10_update              script_s16a10_update
     00185E67  _script_s16a11_interact            script_s16a11_interact
     00185E7D  _script_s16a11_update              script_s16a11_update
     00185E8B  _script_s16a13_interact            script_s16a13_interact
     00185EA1  _script_s16a13_update              script_s16a13_update
     00185EAF  _script_s16a17_interact            script_s16a17_interact
     00185EC5  _script_s16a18_interact            script_s16a18_interact
     00185EDB  _script_s16a19_interact            script_s16a19_interact
     00185EF1  _script_s16a7_interact             script_s16a7_interact
     00185F07  _script_s16a8_interact             script_s16a8_interact
     00185F1D  _script_s16a8_update               script_s16a8_update
     00185F2B  _script_s18a10_interact            script_s18a10_interact
     00185F41  _script_s18a17_interact            script_s18a17_interact
     00185F57  _script_s18a6_interact             script_s18a6_interact
     00185F6D  _script_s18a8_interact             script_s18a8_interact
     00185F83  _script_s18a9_interact             script_s18a9_interact
     00185F99  _script_s2_init                    script_s2_init
     00185FCB  _script_s22a4_interact             script_s22a4_interact
     00185FE1  _script_s22a4_update               script_s22a4_update
     00185FEF  _script_s22a5_update               script_s22a5_update
     00185FFD  _script_s22a7_interact             script_s22a7_interact
     00186013  _script_s22a7_update               script_s22a7_update
     00186021  _script_s24a13_interact            script_s24a13_interact
     00186037  _script_s24a15_interact            script_s24a15_interact
     0018604D  _script_s24a18_interact            script_s24a18_interact
     00186063  _script_s24a5_interact             script_s24a5_interact
     00186079  _script_s24a7_interact             script_s24a7_interact
     0018608F  _script_s24a8_interact             script_s24a8_interact
     001860A5  _script_s24a9_interact             script_s24a9_interact
     001860BB  _script_s24t1_interact             script_s24t1_interact
     001860ED  _script_s26a10_interact            script_s26a10_interact
     00186103  _script_s26a10_update              script_s26a10_update
ASxxxx Linker V03.00 + NoICE + sdld,  page 70.
Hexadecimal  [32-Bits]

Area                                    Addr        Size        Decimal Bytes (Attributes)
--------------------------------        ----        ----        ------- ----- ------------
_CODE_24                            00184000    00003241 =       12865. bytes (REL,CON)

      Value  Global                              Global Defined In Module
      -----  --------------------------------   ------------------------
     00186111  _script_s26a5_interact             script_s26a5_interact
     00186127  _script_s26a5_update               script_s26a5_update
     00186135  _script_s26a7_interact             script_s26a7_interact
     0018614B  _script_s26a7_update               script_s26a7_update
     00186159  _script_s2a0_update                script_s2a0_update
     00186191  _script_s3_init                    script_s3_init
     001861BB  _script_s30a12_interact            script_s30a12_interact
     001861D1  _script_s30a13_interact            script_s30a13_interact
     001861E7  _script_s30a16_interact            script_s30a16_interact
     001861FD  _script_s30a16_update              script_s30a16_update
     0018620B  _script_s30a18_interact            script_s30a18_interact
     00186221  _script_s30a18_update              script_s30a18_update
     0018622F  _script_s30a19_interact            script_s30a19_interact
     00186245  _script_s30a19_update              script_s30a19_update
     00186253  _script_s30a6_interact             script_s30a6_interact
     00186269  _script_s30a6_update               script_s30a6_update
     00186277  _script_s30a7_interact             script_s30a7_interact
     0018628D  _script_s30a9_interact             script_s30a9_interact
     001862A3  _script_s30t1_interact             script_s30t1_interact
     001862D9  _script_s30t10_interact            script_s30t10_interact
     0018630B  _script_s30t2_interact             script_s30t2_interact
     00186341  _script_s30t3_interact             script_s30t3_interact
     00186377  _script_s30t4_interact             script_s30t4_interact
     001863AD  _script_s30t5_interact             script_s30t5_interact
     001863CD  _script_s30t6_interact             script_s30t6_interact
     001863ED  _script_s30t7_interact             script_s30t7_interact
     00186423  _script_s30t8_interact             script_s30t8_interact
     00186459  _script_s30t9_interact             script_s30t9_interact
     0018648B  _script_s32a13_interact            script_s32a13_interact
     001864A1  _script_s32a13_update              script_s32a13_update
     001864AF  _script_s32a6_interact             script_s32a6_interact
     001864C5  _script_s32a6_update               script_s32a6_update
     001864D3  _script_s32a8_interact             script_s32a8_interact
     001864E9  _script_s32a9_interact             script_s32a9_interact
     001864FF  _script_s34a10_interact            script_s34a10_interact
     00186515  _script_s34a12_interact            script_s34a12_interact
     0018652B  _script_s34a12_update              script_s34a12_update
     00186539  _script_s34a13_interact            script_s34a13_interact
     0018654F  _script_s34a14_interact            script_s34a14_interact
     00186565  _script_s34a17_interact            script_s34a17_interact
     0018657B  _script_s34a2_interact             script_s34a2_interact
     00186591  _script_s34a3_interact             script_s34a3_interact
     001865A7  _script_s34a4_interact             script_s34a4_interact
     001865BD  _script_s34a4_update               script_s34a4_update
     001865CB  _script_s34a6_interact             script_s34a6_interact
     001865E1  _script_s34a7_interact             script_s34a7_interact
     001865F7  _script_s34a8_interact             script_s34a8_interact
     0018660D  _script_s34a9_interact             script_s34a9_interact
     00186623  _script_s38_init                   script_s38_init
     0018664D  _script_s39_init                   script_s39_init
     00186677  _script_s4_init                    script_s4_init
ASxxxx Linker V03.00 + NoICE + sdld,  page 71.
Hexadecimal  [32-Bits]

Area                                    Addr        Size        Decimal Bytes (Attributes)
--------------------------------        ----        ----        ------- ----- ------------
_CODE_24                            00184000    00003241 =       12865. bytes (REL,CON)

      Value  Global                              Global Defined In Module
      -----  --------------------------------   ------------------------
     001866A9  _script_s44_init                   script_s44_init
     001866EB  _script_s5_init                    script_s5_init
     0018671D  _script_s6_init                    script_s6_init
     00186747  ___func_spritesheet_0              spritesheet_0
     00186747  _spritesheet_0_metasprite_0        spritesheet_0
     00186753  _spritesheet_0_metasprite_1        spritesheet_0
     0018675F  _spritesheet_0_metasprites         spritesheet_0
     00186763  _spritesheet_0_animations          spritesheet_0
     00186773  _spritesheet_0_animations_lookup   spritesheet_0
     00186775  _spritesheet_0                     spritesheet_0
     00186788  ___func_spritesheet_1              spritesheet_1
     00186788  _spritesheet_1_metasprite_0        spritesheet_1
     00186790  _spritesheet_1_metasprites         spritesheet_1
     00186792  _spritesheet_1_animations          spritesheet_1
     001867A2  _spritesheet_1_animations_lookup   spritesheet_1
     001867A4  _spritesheet_1                     spritesheet_1
     001867B7  ___func_spritesheet_10             spritesheet_10
     001867B7  _spritesheet_10_metasprite_0       spritesheet_10
     001867BF  _spritesheet_10_metasprite_1       spritesheet_10
     001867C7  _spritesheet_10_metasprites        spritesheet_10
     001867CB  _spritesheet_10_animations         spritesheet_10
     001867DB  _spritesheet_10_animations_looku   spritesheet_10
     001867DD  _spritesheet_10                    spritesheet_10
     001867F0  ___func_spritesheet_11             spritesheet_11
     001867F0  _spritesheet_11_metasprite_0       spritesheet_11
     001867F8  _spritesheet_11_metasprites        spritesheet_11
     001867FA  _spritesheet_11_animations         spritesheet_11
     0018680A  _spritesheet_11_animations_looku   spritesheet_11
     0018680C  _spritesheet_11                    spritesheet_11
     0018681F  ___func_spritesheet_12             spritesheet_12
     0018681F  _spritesheet_12_metasprite_0       spritesheet_12
     00186827  _spritesheet_12_metasprites        spritesheet_12
     00186829  _spritesheet_12_animations         spritesheet_12
     00186839  _spritesheet_12_animations_looku   spritesheet_12
     0018683B  _spritesheet_12                    spritesheet_12
     0018684E  ___func_spritesheet_13             spritesheet_13
     0018684E  _spritesheet_13_metasprite_0       spritesheet_13
     0018685A  _spritesheet_13_metasprites        spritesheet_13
     0018685C  _spritesheet_13_animations         spritesheet_13
     0018686C  _spritesheet_13_animations_looku   spritesheet_13
     0018686E  _spritesheet_13                    spritesheet_13
     00186881  ___func_spritesheet_14             spritesheet_14
     00186881  _spritesheet_14_metasprite_0       spritesheet_14
     00186889  _spritesheet_14_metasprites        spritesheet_14
     0018688B  _spritesheet_14_animations         spritesheet_14
     0018689B  _spritesheet_14_animations_looku   spritesheet_14
     0018689D  _spritesheet_14                    spritesheet_14
     001868B0  ___func_spritesheet_15             spritesheet_15
     001868B0  _spritesheet_15_metasprite_0       spritesheet_15
     001868B8  _spritesheet_15_metasprites        spritesheet_15
     001868BA  _spritesheet_15_animations         spritesheet_15
ASxxxx Linker V03.00 + NoICE + sdld,  page 72.
Hexadecimal  [32-Bits]

Area                                    Addr        Size        Decimal Bytes (Attributes)
--------------------------------        ----        ----        ------- ----- ------------
_CODE_24                            00184000    00003241 =       12865. bytes (REL,CON)

      Value  Global                              Global Defined In Module
      -----  --------------------------------   ------------------------
     001868CA  _spritesheet_15_animations_looku   spritesheet_15
     001868CC  _spritesheet_15                    spritesheet_15
     001868DF  ___func_spritesheet_16             spritesheet_16
     001868DF  _spritesheet_16_metasprite_0       spritesheet_16
     001868EB  _spritesheet_16_metasprite_1       spritesheet_16
     001868F7  _spritesheet_16_metasprites        spritesheet_16
     001868FB  _spritesheet_16_animations         spritesheet_16
     0018690B  _spritesheet_16_animations_looku   spritesheet_16
     0018690D  _spritesheet_16                    spritesheet_16
     00186920  ___func_spritesheet_18             spritesheet_18
     00186920  _spritesheet_18_metasprite_0       spritesheet_18
     00186924  _spritesheet_18_metasprites        spritesheet_18
     00186926  _spritesheet_18_animations         spritesheet_18
     00186936  _spritesheet_18_animations_looku   spritesheet_18
     00186938  _spritesheet_18                    spritesheet_18
     0018694B  ___func_spritesheet_19             spritesheet_19
     0018694B  _spritesheet_19_metasprite_0       spritesheet_19
     00186953  _spritesheet_19_metasprite_1       spritesheet_19
     0018695B  _spritesheet_19_metasprites        spritesheet_19
     0018695F  _spritesheet_19_animations         spritesheet_19
     0018696F  _spritesheet_19_animations_looku   spritesheet_19
     00186971  _spritesheet_19                    spritesheet_19
     00186984  ___func_spritesheet_2              spritesheet_2
     00186984  _spritesheet_2_metasprite_0        spritesheet_2
     00186990  _spritesheet_2_metasprite_1        spritesheet_2
     0018699C  _spritesheet_2_metasprites         spritesheet_2
     001869A0  _spritesheet_2_animations          spritesheet_2
     001869B0  _spritesheet_2_animations_lookup   spritesheet_2
     001869B2  _spritesheet_2                     spritesheet_2
     001869C5  ___func_spritesheet_22             spritesheet_22
     001869C5  _spritesheet_22_metasprite_0       spritesheet_22
     001869D1  _spritesheet_22_metasprite_1       spritesheet_22
     001869DD  _spritesheet_22_metasprites        spritesheet_22
     001869E1  _spritesheet_22_animations         spritesheet_22
     001869F1  _spritesheet_22_animations_looku   spritesheet_22
     001869F3  _spritesheet_22                    spritesheet_22
     00186A06  ___func_spritesheet_24             spritesheet_24
     00186A06  _spritesheet_24_metasprite_0       spritesheet_24
     00186A12  _spritesheet_24_metasprite_1       spritesheet_24
     00186A1E  _spritesheet_24_metasprites        spritesheet_24
     00186A22  _spritesheet_24_animations         spritesheet_24
     00186A32  _spritesheet_24_animations_looku   spritesheet_24
     00186A34  _spritesheet_24                    spritesheet_24
     00186A47  ___func_spritesheet_27             spritesheet_27
     00186A47  _spritesheet_27_metasprite_0       spritesheet_27
     00186A5F  _spritesheet_27_metasprites        spritesheet_27
     00186A61  _spritesheet_27_animations         spritesheet_27
     00186A71  _spritesheet_27_animations_looku   spritesheet_27
     00186A73  _spritesheet_27                    spritesheet_27
     00186A86  ___func_spritesheet_29             spritesheet_29
     00186A86  _spritesheet_29_metasprite_0       spritesheet_29
ASxxxx Linker V03.00 + NoICE + sdld,  page 73.
Hexadecimal  [32-Bits]

Area                                    Addr        Size        Decimal Bytes (Attributes)
--------------------------------        ----        ----        ------- ----- ------------
_CODE_24                            00184000    00003241 =       12865. bytes (REL,CON)

      Value  Global                              Global Defined In Module
      -----  --------------------------------   ------------------------
     00186A92  _spritesheet_29_metasprite_1       spritesheet_29
     00186A9E  _spritesheet_29_metasprites        spritesheet_29
     00186AA2  _spritesheet_29_animations         spritesheet_29
     00186AB2  _spritesheet_29_animations_looku   spritesheet_29
     00186AB4  _spritesheet_29                    spritesheet_29
     00186AC7  ___func_spritesheet_3              spritesheet_3
     00186AC7  _spritesheet_3_metasprite_0        spritesheet_3
     00186ACF  _spritesheet_3_metasprites         spritesheet_3
     00186AD1  _spritesheet_3_animations          spritesheet_3
     00186AE1  _spritesheet_3_animations_lookup   spritesheet_3
     00186AE3  _spritesheet_3                     spritesheet_3
     00186AF6  ___func_spritesheet_31             spritesheet_31
     00186AF6  _spritesheet_31_metasprite_0       spritesheet_31
     00186B0E  _spritesheet_31_metasprites        spritesheet_31
     00186B10  _spritesheet_31_animations         spritesheet_31
     00186B20  _spritesheet_31_animations_looku   spritesheet_31
     00186B22  _spritesheet_31                    spritesheet_31
     00186B35  ___func_spritesheet_35             spritesheet_35
     00186B35  _spritesheet_35_metasprite_0       spritesheet_35
     00186B4D  _spritesheet_35_metasprites        spritesheet_35
     00186B4F  _spritesheet_35_animations         spritesheet_35
     00186B5F  _spritesheet_35_animations_looku   spritesheet_35
     00186B61  _spritesheet_35                    spritesheet_35
     00186B74  ___func_spritesheet_37             spritesheet_37
     00186B74  _spritesheet_37_metasprite_0       spritesheet_37
     00186B80  _spritesheet_37_metasprite_1       spritesheet_37
     00186B8C  _spritesheet_37_metasprites        spritesheet_37
     00186B90  _spritesheet_37_animations         spritesheet_37
     00186BA0  _spritesheet_37_animations_looku   spritesheet_37
     00186BA2  _spritesheet_37                    spritesheet_37
     00186BB5  ___func_spritesheet_38             spritesheet_38
     00186BB5  _spritesheet_38_metasprite_0       spritesheet_38
     00186BCD  _spritesheet_38_metasprites        spritesheet_38
     00186BCF  _spritesheet_38_animations         spritesheet_38
     00186BDF  _spritesheet_38_animations_looku   spritesheet_38
     00186BE1  _spritesheet_38                    spritesheet_38
     00186BF4  ___func_spritesheet_39             spritesheet_39
     00186BF4  _spritesheet_39_metasprite_0       spritesheet_39
     00186C00  _spritesheet_39_metasprite_1       spritesheet_39
     00186C0C  _spritesheet_39_metasprites        spritesheet_39
     00186C10  _spritesheet_39_animations         spritesheet_39
     00186C20  _spritesheet_39_animations_looku   spritesheet_39
     00186C22  _spritesheet_39                    spritesheet_39
     00186C35  ___func_spritesheet_4              spritesheet_4
     00186C35  _spritesheet_4_metasprite_0        spritesheet_4
     00186C3D  _spritesheet_4_metasprites         spritesheet_4
     00186C3F  _spritesheet_4_animations          spritesheet_4
     00186C4F  _spritesheet_4_animations_lookup   spritesheet_4
     00186C51  _spritesheet_4                     spritesheet_4
     00186C64  ___func_spritesheet_40             spritesheet_40
     00186C64  _spritesheet_40_metasprite_0       spritesheet_40
ASxxxx Linker V03.00 + NoICE + sdld,  page 74.
Hexadecimal  [32-Bits]

Area                                    Addr        Size        Decimal Bytes (Attributes)
--------------------------------        ----        ----        ------- ----- ------------
_CODE_24                            00184000    00003241 =       12865. bytes (REL,CON)

      Value  Global                              Global Defined In Module
      -----  --------------------------------   ------------------------
     00186C7C  _spritesheet_40_metasprites        spritesheet_40
     00186C7E  _spritesheet_40_animations         spritesheet_40
     00186C8E  _spritesheet_40_animations_looku   spritesheet_40
     00186C90  _spritesheet_40                    spritesheet_40
     00186CA3  ___func_spritesheet_42             spritesheet_42
     00186CA3  _spritesheet_42_metasprite_0       spritesheet_42
     00186CAF  _spritesheet_42_metasprite_1       spritesheet_42
     00186CBB  _spritesheet_42_metasprites        spritesheet_42
     00186CBF  _spritesheet_42_animations         spritesheet_42
     00186CCF  _spritesheet_42_animations_looku   spritesheet_42
     00186CD1  _spritesheet_42                    spritesheet_42
     00186CE4  ___func_spritesheet_43             spritesheet_43
     00186CE4  _spritesheet_43_metasprite_0       spritesheet_43
     00186CF8  _spritesheet_43_metasprites        spritesheet_43
     00186CFA  _spritesheet_43_animations         spritesheet_43
     00186D0A  _spritesheet_43_animations_looku   spritesheet_43
     00186D0C  _spritesheet_43                    spritesheet_43
     00186D1F  ___func_spritesheet_45             spritesheet_45
     00186D1F  _spritesheet_45_metasprite_0       spritesheet_45
     00186D37  _spritesheet_45_metasprites        spritesheet_45
     00186D39  _spritesheet_45_animations         spritesheet_45
     00186D49  _spritesheet_45_animations_looku   spritesheet_45
     00186D4B  _spritesheet_45                    spritesheet_45
     00186D5E  ___func_spritesheet_46             spritesheet_46
     00186D5E  _spritesheet_46_metasprite_0       spritesheet_46
     00186D76  _spritesheet_46_metasprites        spritesheet_46
     00186D78  _spritesheet_46_animations         spritesheet_46
     00186D88  _spritesheet_46_animations_looku   spritesheet_46
     00186D8A  _spritesheet_46                    spritesheet_46
     00186D9D  ___func_spritesheet_48             spritesheet_48
     00186D9D  _spritesheet_48_metasprite_0       spritesheet_48
     00186DB5  _spritesheet_48_metasprites        spritesheet_48
     00186DB7  _spritesheet_48_animations         spritesheet_48
     00186DC7  _spritesheet_48_animations_looku   spritesheet_48
     00186DC9  _spritesheet_48                    spritesheet_48
     00186DDC  ___func_spritesheet_5              spritesheet_5
     00186DDC  _spritesheet_5_metasprite_0        spritesheet_5
     00186DE4  _spritesheet_5_metasprites         spritesheet_5
     00186DE6  _spritesheet_5_animations          spritesheet_5
     00186DF6  _spritesheet_5_animations_lookup   spritesheet_5
     00186DF8  _spritesheet_5                     spritesheet_5
     00186E0B  ___func_spritesheet_51             spritesheet_51
     00186E0B  _spritesheet_51_metasprite_0       spritesheet_51
     00186E23  _spritesheet_51_metasprites        spritesheet_51
     00186E25  _spritesheet_51_animations         spritesheet_51
     00186E35  _spritesheet_51_animations_looku   spritesheet_51
     00186E37  _spritesheet_51                    spritesheet_51
     00186E4A  ___func_spritesheet_53             spritesheet_53
     00186E4A  _spritesheet_53_metasprite_0       spritesheet_53
     00186E62  _spritesheet_53_metasprites        spritesheet_53
     00186E64  _spritesheet_53_animations         spritesheet_53
ASxxxx Linker V03.00 + NoICE + sdld,  page 75.
Hexadecimal  [32-Bits]

Area                                    Addr        Size        Decimal Bytes (Attributes)
--------------------------------        ----        ----        ------- ----- ------------
_CODE_24                            00184000    00003241 =       12865. bytes (REL,CON)

      Value  Global                              Global Defined In Module
      -----  --------------------------------   ------------------------
     00186E74  _spritesheet_53_animations_looku   spritesheet_53
     00186E76  _spritesheet_53                    spritesheet_53
     00186E89  ___func_spritesheet_55             spritesheet_55
     00186E89  _spritesheet_55_metasprite_0       spritesheet_55
     00186EA1  _spritesheet_55_metasprites        spritesheet_55
     00186EA3  _spritesheet_55_animations         spritesheet_55
     00186EB3  _spritesheet_55_animations_looku   spritesheet_55
     00186EB5  _spritesheet_55                    spritesheet_55
     00186EC8  ___func_spritesheet_6              spritesheet_6
     00186EC8  _spritesheet_6_metasprite_0        spritesheet_6
     00186ED0  _spritesheet_6_metasprites         spritesheet_6
     00186ED2  _spritesheet_6_animations          spritesheet_6
     00186EE2  _spritesheet_6_animations_lookup   spritesheet_6
     00186EE4  _spritesheet_6                     spritesheet_6
     00186EF7  ___func_spritesheet_60             spritesheet_60
     00186EF7  _spritesheet_60_metasprite_0       spritesheet_60
     00186F03  _spritesheet_60_metasprite_1       spritesheet_60
     00186F0F  _spritesheet_60_metasprites        spritesheet_60
     00186F13  _spritesheet_60_animations         spritesheet_60
     00186F23  _spritesheet_60_animations_looku   spritesheet_60
     00186F25  _spritesheet_60                    spritesheet_60
     00186F38  ___func_spritesheet_7              spritesheet_7
     00186F38  _spritesheet_7_metasprite_0        spritesheet_7
     00186F44  _spritesheet_7_metasprites         spritesheet_7
     00186F46  _spritesheet_7_animations          spritesheet_7
     00186F56  _spritesheet_7_animations_lookup   spritesheet_7
     00186F58  _spritesheet_7                     spritesheet_7
     00186F6B  ___func_spritesheet_8              spritesheet_8
     00186F6B  _spritesheet_8_metasprite_0        spritesheet_8
     00186F77  _spritesheet_8_metasprites         spritesheet_8
     00186F79  _spritesheet_8_animations          spritesheet_8
     00186F89  _spritesheet_8_animations_lookup   spritesheet_8
     00186F8B  _spritesheet_8                     spritesheet_8
     00186F9E  ___func_spritesheet_9              spritesheet_9
     00186F9E  _spritesheet_9_metasprite_0        spritesheet_9
     00186FA6  _spritesheet_9_metasprites         spritesheet_9
     00186FA8  _spritesheet_9_animations          spritesheet_9
     00186FB8  _spritesheet_9_animations_lookup   spritesheet_9
     00186FBA  _spritesheet_9                     spritesheet_9
     00186FCD  _spritesheet_none_metasprite       spritesheet_none
     00186FD1  _spritesheet_none_metasprites      spritesheet_none
     00186FD3  _spritesheet_none                  spritesheet_none
     00186FE6  ___func_tileset_21                 tileset_21
     00186FE6  _tileset_21                        tileset_21
     00187008  ___func_tileset_22                 tileset_22
     00187008  _tileset_22                        tileset_22
     0018702A  ___func_tileset_23                 tileset_23
     0018702A  _tileset_23                        tileset_23
     0018704C  ___func_tileset_24                 tileset_24
     0018704C  _tileset_24                        tileset_24
     0018706E  ___func_tileset_25                 tileset_25
ASxxxx Linker V03.00 + NoICE + sdld,  page 76.
Hexadecimal  [32-Bits]

Area                                    Addr        Size        Decimal Bytes (Attributes)
--------------------------------        ----        ----        ------- ----- ------------
_CODE_24                            00184000    00003241 =       12865. bytes (REL,CON)

      Value  Global                              Global Defined In Module
      -----  --------------------------------   ------------------------
     0018706E  _tileset_25                        tileset_25
     001870B0  ___func_tileset_26                 tileset_26
     001870B0  _tileset_26                        tileset_26
     001870F2  ___func_tileset_27                 tileset_27
     001870F2  _tileset_27                        tileset_27
     00187114  ___func_tileset_28                 tileset_28
     00187114  _tileset_28                        tileset_28
     00187156  ___func_tileset_29                 tileset_29
     00187156  _tileset_29                        tileset_29
     00187178  ___func_tileset_30                 tileset_30
     00187178  _tileset_30                        tileset_30
     001871BA  ___func_tileset_33                 tileset_33
     001871BA  _tileset_33                        tileset_33
     001871BD  ___func_tileset_34                 tileset_34
     001871BD  _tileset_34                        tileset_34
     001871FF  ___func_tileset_52                 tileset_52
     001871FF  _tileset_52                        tileset_52

ASxxxx Linker V03.00 + NoICE + sdld,  page 77.
Hexadecimal  [32-Bits]

Area                                    Addr        Size        Decimal Bytes (Attributes)
--------------------------------        ----        ----        ------- ----- ------------
_CODE_4                             00044000    0000293B =       10555. bytes (REL,CON)

      Value  Global                              Global Defined In Module
      -----  --------------------------------   ------------------------
     00044000  _core_reset                        core
     00044075  _process_VM                        core
     0004431C  _core_run                          core
     000443E4  ___HandleCrash_banked              
     0004474B  _load_init                         data_manager
     0004475E  _spritesheet_none_far              data_manager
     00044761  _load_bkg_tileset                  data_manager
     0004486E  _load_background                   data_manager
     0004496C  _load_sprite                       data_manager
     00044A69  _load_bounds                       data_manager
     00044A89  _do_load_palette                   data_manager
     00044B09  _get_farptr_index                  data_manager
     00044B9F  _load_scene                        data_manager
     000454CE  _load_player                       data_manager
     0004551A  _load_emote                        data_manager
     0004552E  _events_init                       events
     0004556E  _timers_init                       events
     000455AE  _CGBFadeToWhiteStep                fade_manager
     000455E7  _CGBFadeToBlackStep                fade_manager
     00045622  _ApplyPaletteChangeColor           fade_manager
     00045666  _fade_speeds                       fade_manager
     0004566D  _DMGFadeToWhiteStep                fade_manager
     00045690  _DMGFadeToBlackStep                fade_manager
     000456B5  _ApplyPaletteChangeDMG             fade_manager
     0004572C  _fade_init                         fade_manager
     00045754  _fade_in                           fade_manager
     00045785  _fade_out                          fade_manager
     000457B7  _fade_update                       fade_manager
     00045811  _fade_applypalettechange           fade_manager
     0004582B  _fade_setspeed                     fade_manager
     0004583B  _fade_in_modal                     fade_manager
     0004585B  _fade_out_modal                    fade_manager
     000458E7  _save_sram_banks                   
     00045972  _erase_flash                       
     0004598D  _restore_sram_bank                 flasher
     000459BC  _restore_sram                      flasher
     000459D2  _save_sram                         flasher
     000459E5  _input_init                        input
     00045A06  _data_init                         load_save
     00045A47  _signature                         load_save
     00045A4B  _save_points                       load_save
     00045A8F  _data_slot_address                 load_save
     00045AE7  _data_save                         load_save
     00045B9E  _data_load                         load_save
     00045C71  _data_clear                        load_save
     00045C96  _data_peek                         load_save
     00045D34  _sound_init                        music_manager
     00045D56  _music_init                        music_manager
     00045D92  _music_events_poll                 music_manager
     00045DBC  _music_stop                        music_manager
ASxxxx Linker V03.00 + NoICE + sdld,  page 78.
Hexadecimal  [32-Bits]

Area                                    Addr        Size        Decimal Bytes (Attributes)
--------------------------------        ----        ----        ------- ----- ------------
_CODE_4                             00044000    0000293B =       10555. bytes (REL,CON)

      Value  Global                              Global Defined In Module
      -----  --------------------------------   ------------------------
     00045DD2  _wave_play                         music_manager
     00045E10  _FX_REG_SIZES                      music_manager
     00045E15  _FX_ADDR_LO                        music_manager
     00045E1A  _channel_masks                     music_manager
     00045E1F  _sound_play                        music_manager
     00045EA0  _palette_init                      palette
     00045ED9  _CGBZeroPalette                    palette
     00045EEE  _projectiles_init                  projectiles
     00045F2E  _projectile_launch                 projectiles
     00046313  _set_sample                        sample_player
     0004634C  _set_sgb_border                    sgb_border
     00046590  _SIO_init                          sio
     000465B9  _trigger_reset                     trigger
     000465C9  _trigger_interact                  trigger
     00046609  _trigger_activate_at               trigger
     00046654  _trigger_activate_at_intersectio   trigger
     00046796  _trigger_at_intersection           trigger
     000468AB  _trigger_at_tile                   trigger

ASxxxx Linker V03.00 + NoICE + sdld,  page 79.
Hexadecimal  [32-Bits]

Area                                    Addr        Size        Decimal Bytes (Attributes)
--------------------------------        ----        ----        ------- ----- ------------
_CRASH_HEADER0                      00000000    00000005 =           5. bytes (ABS,CON)

      Value  Global                              Global Defined In Module
      -----  --------------------------------   ------------------------
ASxxxx Linker V03.00 + NoICE + sdld,  page 80.
Hexadecimal  [32-Bits]

Area                                    Addr        Size        Decimal Bytes (Attributes)
--------------------------------        ----        ----        ------- ----- ------------
_CRASH_HEADER1                      00000000    00000004 =           4. bytes (ABS,CON)

      Value  Global                              Global Defined In Module
      -----  --------------------------------   ------------------------
ASxxxx Linker V03.00 + NoICE + sdld,  page 81.
Hexadecimal  [32-Bits]

Area                                    Addr        Size        Decimal Bytes (Attributes)
--------------------------------        ----        ----        ------- ----- ------------
_CRASH_SCRATCH2                     00000000    000001CB =         459. bytes (ABS,CON)

      Value  Global                              Global Defined In Module
      -----  --------------------------------   ------------------------
ASxxxx Linker V03.00 + NoICE + sdld,  page 82.
Hexadecimal  [32-Bits]

Area                                    Addr        Size        Decimal Bytes (Attributes)
--------------------------------        ----        ----        ------- ----- ------------
_HEADER_SIO0                        00000000    00000004 =           4. bytes (ABS,CON)

      Value  Global                              Global Defined In Module
      -----  --------------------------------   ------------------------
ASxxxx Linker V03.00 + NoICE + sdld,  page 83.
Hexadecimal  [32-Bits]

Area                                    Addr        Size        Decimal Bytes (Attributes)
--------------------------------        ----        ----        ------- ----- ------------
_HEADER_TIMER0                      00000000    00000004 =           4. bytes (ABS,CON)

      Value  Global                              Global Defined In Module
      -----  --------------------------------   ------------------------
ASxxxx Linker V03.00 + NoICE + sdld,  page 84.
Hexadecimal  [32-Bits]

Area                                    Addr        Size        Decimal Bytes (Attributes)
--------------------------------        ----        ----        ------- ----- ------------
_CODE_2                             00024000    00003951 =       14673. bytes (REL,CON)

      Value  Global                              Global Defined In Module
      -----  --------------------------------   ------------------------
     00024000  _scroll_rect                       
     0002403D  _vm_actor_move_to                  vm_actor
     000248B8  _vm_actor_activate                 vm_actor
     000248F6  _vm_actor_deactivate               vm_actor
     00024934  _vm_actor_terminate_update         vm_actor
     0002497B  _vm_actor_set_dir                  vm_actor
     000249C4  _vm_actor_set_anim                 vm_actor
     00024A51  _vm_actor_set_pos                  vm_actor
     00024ACB  _vm_actor_get_pos                  vm_actor
     00024B3A  _vm_actor_get_dir                  vm_actor
     00024BB4  _vm_actor_get_angle                vm_actor
     00024C35  _vm_actor_emote                    vm_actor
     00024CF9  _vm_actor_set_bounds               vm_actor
     00024D57  _vm_actor_set_spritesheet          vm_actor
     00024E26  _vm_actor_replace_tile             vm_actor
     00024E90  _vm_actor_set_hidden               vm_actor
     00024ED5  _vm_actor_set_anim_tick            vm_actor
     00024F13  _vm_actor_set_move_speed           vm_actor
     00024F51  _vm_actor_set_coll_enabled         vm_actor
     00024F96  _vm_actor_set_anim_frame           vm_actor
     00024FD9  _vm_actor_get_anim_frame           vm_actor
     00025021  _vm_actor_set_anim_set             vm_actor
     000250AE  _vm_actor_set_spritesheet_by_ref   vm_actor
     000251BC  _vm_camera_move_to                 vm_camera
     0002530F  _vm_camera_set_pos                 vm_camera
     00025356  _camera_shake_frames               vm_camera
     0002544E  _vm_show_sprites                   vm_gameboy
     0002545A  _vm_hide_sprites                   vm_gameboy
     00025466  _vm_input_wait                     vm_gameboy
     0002548E  _vm_context_prepare                vm_gameboy
     000254B9  _vm_input_attach                   vm_gameboy
     000254CF  _vm_input_detach                   vm_gameboy
     000254E3  _vm_input_get                      vm_gameboy
     00025517  _vm_fade_in                        vm_gameboy
     0002552D  _vm_fade_out                       vm_gameboy
     00025543  _vm_timer_prepare                  vm_gameboy
     0002556E  _vm_timer_set                      vm_gameboy
     00025589  _vm_timer_stop                     vm_gameboy
     0002559D  _vm_timer_reset                    vm_gameboy
     000255B4  _vm_get_tile_xy                    vm_gameboy
     0002569D  _vm_replace_tile                   vm_gameboy
     00025746  _vm_poll                           vm_gameboy
     0002581F  _vm_set_sprite_mode                vm_gameboy
     00025833  _vm_replace_tile_xy                vm_gameboy
     00025955  _vm_rumble                         vm_gameboy
     0002596D  _vm_save_clear                     vm_load_save
     0002597C  _vm_save_peek                      vm_load_save
     000259FC  _vm_sin_scale                      vm_math
     00025A9E  _vm_cos_scale                      vm_math
     00025B42  _vm_music_play                     vm_music
ASxxxx Linker V03.00 + NoICE + sdld,  page 85.
Hexadecimal  [32-Bits]

Area                                    Addr        Size        Decimal Bytes (Attributes)
--------------------------------        ----        ----        ------- ----- ------------
_CODE_2                             00024000    00003951 =       14673. bytes (REL,CON)

      Value  Global                              Global Defined In Module
      -----  --------------------------------   ------------------------
     00025B56  _vm_music_stop                     vm_music
     00025B5E  _vm_music_mute                     vm_music
     00025B6E  _vm_music_routine                  vm_music
     00025B95  _vm_music_setpos                   vm_music
     00025B96  _vm_sound_mastervol                vm_music
     00025B9C  _vm_sound_play                     vm_music
     00025BE4  _vm_wave_play                      vm_music
     00025C01  _vm_load_palette                   vm_palette
     00025DB5  _vm_projectile_launch              vm_projectiles
     00025DF0  _vm_rtc_latch                      vm_rtc
     00025DF8  _vm_rtc_get                        vm_rtc
     00025E41  _vm_rtc_set                        vm_rtc
     00025E8A  _vm_rtc_start                      vm_rtc
     00025EA5  _vm_scene_push                     vm_scene
     00025F2A  _vm_scene_pop                      vm_scene
     00025F38  _vm_scene_pop_all                  vm_scene
     00025F43  _vm_scene_stack_reset              vm_scene
     00025F4C  _vm_sio_set_mode                   vm_sio
     00025F5F  _vm_sio_exchange                   vm_sio
     000262B8  _itoa_fmt                          vm_ui_a
     000262F1  .utoa_fmt                          vm_ui_a
     0002639B  _vm_display_text                   vm_ui
     000263B1  _vm_switch_text_layer              vm_ui
     000263CB  _vm_overlay_setpos                 vm_ui
     000263E5  _vm_overlay_hide                   vm_ui
     000263FA  _vm_overlay_wait                   vm_ui
     0002649D  _vm_overlay_move_to                vm_ui
     000264E1  _vm_overlay_set_scroll             vm_ui
     0002651E  _vm_overlay_clear                  vm_ui
     000265F4  _vm_overlay_show                   vm_ui
     00026642  _vm_choice                         vm_ui
     000266E1  _vm_load_frame                     vm_ui
     000266F4  _vm_load_cursor                    vm_ui
     00026707  _vm_set_font                       vm_ui
     00026734  _vm_set_print_dir                  vm_ui
     0002673D  _vm_overlay_scroll                 vm_ui
     00026799  _vm_overlay_set_submap             vm_ui
     00026809  _vm_call_rel                       vm
     0002685B  _vm_call                           vm
     0002689D  _vm_ret                            vm
     000268FC  _vm_call_far                       vm
     00026979  _vm_ret_far                        vm
     000269E8  _vm_push                           vm
     00026A12  _vm_pop                            vm
     00026A4D  _vm_loop_rel                       vm
     00026AFB  _vm_loop                           vm
     00026B88  _vm_jump_rel                       vm
     00026BAC  _vm_jump                           vm
     00026BB8  _vm_systime                        vm
     00026BE4  _wait_frames                       vm
     00026C5B  _vm_invoke                         vm
ASxxxx Linker V03.00 + NoICE + sdld,  page 86.
Hexadecimal  [32-Bits]

Area                                    Addr        Size        Decimal Bytes (Attributes)
--------------------------------        ----        ----        ------- ----- ------------
_CODE_2                             00024000    00003951 =       14673. bytes (REL,CON)

      Value  Global                              Global Defined In Module
      -----  --------------------------------   ------------------------
     00026D87  _vm_join                           vm
     00026DE0  _vm_terminate                      vm
     00026E0D  _vm_if                             vm
     00026F51  _vm_if_const                       vm
     00027065  _vm_push_value                     vm
     000270B7  _vm_push_value_ind                 vm
     0002712C  _vm_push_reference                 vm
     00027183  _vm_reserve                        vm
     000271B0  _vm_set                            vm
     00027211  _vm_set_const                      vm
     0002723D  _vm_get_tlocal                     vm
     000272CA  _vm_test_terminate                 vm
     000272D5  _vm_idle                           vm
     000272E1  _vm_get_uint8                      vm
     00027314  _vm_get_int8                       vm
     00027348  _vm_get_int16                      vm
     0002738A  _vm_set_uint8                      vm
     000273B6  _vm_set_int8                       vm
     000273E2  _vm_set_int16                      vm
     00027421  _vm_set_const_int8                 vm
     0002742A  _vm_set_const_int16                vm
     00027436  _vm_randomize                      vm
     00027441  _vm_rand                           vm
     000274C6  _vm_lock                           vm
     000274D5  _vm_unlock                         vm
     000274E8  _vm_raise                          vm
     0002752A  _vm_set_indirect                   vm
     000275A5  _vm_get_indirect                   vm
     00027620  _vm_poll_loaded                    vm
     0002764F  _vm_memset                         vm
     00027694  _vm_memcpy                         vm
     00027714  _script_runner_init                vm
     000277D0  _script_execute                    vm
     000278EB  _script_terminate                  vm
ASxxxx Linker V03.00 + NoICE + sdld,  page 87.
Hexadecimal  [32-Bits]

Area                                    Addr        Size        Decimal Bytes (Attributes)
--------------------------------        ----        ----        ------- ----- ------------
_CODE_13                            000D4000    00003FFF =       16383. bytes (REL,CON)

      Value  Global                              Global Defined In Module
      -----  --------------------------------   ------------------------
     000D4000  ___func_font_0                     font_0
     000D4DF0  _font_0                            font_0
     000D4DF8  ___func_scene_20_sprites           scene_20_sprites
     000D4DF8  _scene_20_sprites                  scene_20_sprites
     000D4E13  ___func_scene_8_actors             scene_8_actors
     000D4E13  _scene_8_actors                    scene_8_actors
     000D5197  ___func_tilemap_attr_22            tilemap_attr_22
     000D5197  _tilemap_attr_22                   tilemap_attr_22
     000D610F  ___func_tilemap_attr_23            tilemap_attr_23
     000D610F  _tilemap_attr_23                   tilemap_attr_23
     000D7087  ___func_tilemap_attr_24            tilemap_attr_24
     000D7087  _tilemap_attr_24                   tilemap_attr_24
ASxxxx Linker V03.00 + NoICE + sdld,  page 88.
Hexadecimal  [32-Bits]

Area                                    Addr        Size        Decimal Bytes (Attributes)
--------------------------------        ----        ----        ------- ----- ------------
_CODE_22                            00164000    00003FFE =       16382. bytes (REL,CON)

      Value  Global                              Global Defined In Module
      -----  --------------------------------   ------------------------
     00164000  ___func_frame_image                frame_image
     00164000  _frame_image                       frame_image
     00164090  ___func_scene_10_triggers          scene_10_triggers
     00164090  _scene_10_triggers                 scene_10_triggers
     00164098  _script_input_12                   script_input_12
     00164161  _script_input_16                   script_input_16
     0016422A  _script_input_8                    script_input_8
     001642F3  _script_s10_init                   script_s10_init
     001643C5  _script_s10_p_hit1                 script_s10_p_hit1
     0016447C  _script_s10a0_update               script_s10a0_update
     0016450C  _script_s10t0_interact             script_s10t0_interact
     001645CE  _script_s12_p_hit1                 script_s12_p_hit1
     00164685  _script_s12a0_update               script_s12a0_update
     00164715  _script_s12t0_interact             script_s12t0_interact
     001647D7  _script_s14_init                   script_s14_init
     001648A4  _script_s14_p_hit1                 script_s14_p_hit1
     0016495B  _script_s14a0_update               script_s14a0_update
     001649EB  _script_s14t0_interact             script_s14t0_interact
     00164AAD  _script_s16_init                   script_s16_init
     00164B7F  _script_s16a0_update               script_s16a0_update
     00164C0F  _script_s18_init                   script_s18_init
     00164CDC  _script_s18a0_update               script_s18a0_update
     00164D6C  _script_s20_init                   script_s20_init
     00164E39  _script_s20_p_hit1                 script_s20_p_hit1
     00164EF0  _script_s20a0_update               script_s20a0_update
     00164F80  _script_s20t0_interact             script_s20t0_interact
     00165042  _script_s22a0_update               script_s22a0_update
     001650D2  _script_s22a13_update              script_s22a13_update
     00165196  _script_s22a16_update              script_s22a16_update
     0016525A  _script_s22a17_update              script_s22a17_update
     0016531E  _script_s22a8_update               script_s22a8_update
     001653E2  _script_s24a0_update               script_s24a0_update
     00165472  _script_s24a15_update              script_s24a15_update
     0016552B  _script_s24a5_update               script_s24a5_update
     001655E4  _script_s24a9_update               script_s24a9_update
     0016569D  _script_s26_init                   script_s26_init
     0016576F  _script_s26a0_update               script_s26a0_update
     001657FF  _script_s28_init                   script_s28_init
     001658CC  _script_s28a4_update               script_s28a4_update
     0016595C  _script_s30a0_update               script_s30a0_update
     001659EC  _script_s30a10_update              script_s30a10_update
     00165A80  _script_s30a14_update              script_s30a14_update
     00165B14  _script_s30a4_update               script_s30a4_update
     00165BA8  _script_s32a0_update               script_s32a0_update
     00165C38  _script_s32a8_update               script_s32a8_update
     00165CDF  _script_s32a9_update               script_s32a9_update
     00165D86  _script_s34_init                   script_s34_init
     00165E51  _script_s34a0_update               script_s34a0_update
     00165EE1  _script_s34a2_update               script_s34a2_update
     00165F9A  _script_s36_init                   script_s36_init
ASxxxx Linker V03.00 + NoICE + sdld,  page 89.
Hexadecimal  [32-Bits]

Area                                    Addr        Size        Decimal Bytes (Attributes)
--------------------------------        ----        ----        ------- ----- ------------
_CODE_22                            00164000    00003FFE =       16382. bytes (REL,CON)

      Value  Global                              Global Defined In Module
      -----  --------------------------------   ------------------------
     00166067  _script_s36a2_update               script_s36a2_update
     001660F7  _script_s44a1_update               script_s44a1_update
     0016618B  _script_s8_init                    script_s8_init
     00166249  _script_s8_p_hit1                  script_s8_p_hit1
     00166300  _script_s8a0_update                script_s8a0_update
     00166390  _script_s8a3_interact              script_s8a3_interact
     00166465  _script_s8a5_interact              script_s8a5_interact
     0016653A  _script_s8a6_interact              script_s8a6_interact
     0016660F  _script_s8a8_interact              script_s8a8_interact
     001666E4  _script_s8a9_interact              script_s8a9_interact
     001667B9  _script_s8t0_interact              script_s8t0_interact
     0016687B  ___func_spritesheet_17             spritesheet_17
     0016687B  _spritesheet_17_metasprite_0       spritesheet_17
     00166887  _spritesheet_17_metasprite_1       spritesheet_17
     00166893  _spritesheet_17_metasprite_2       spritesheet_17
     001668A7  _spritesheet_17_metasprite_3       spritesheet_17
     001668B3  _spritesheet_17_metasprite_4       spritesheet_17
     001668B7  _spritesheet_17_metasprite_5       spritesheet_17
     001668C3  _spritesheet_17_metasprite_6       spritesheet_17
     001668CF  _spritesheet_17_metasprite_7       spritesheet_17
     001668DB  _spritesheet_17_metasprite_8       spritesheet_17
     001668E7  _spritesheet_17_metasprite_9       spritesheet_17
     001668F3  _spritesheet_17_metasprites        spritesheet_17
     00166913  _spritesheet_17_animations         spritesheet_17
     00166933  _spritesheet_17_animations_looku   spritesheet_17
     00166937  _spritesheet_17                    spritesheet_17
     0016694A  ___func_spritesheet_21             spritesheet_21
     0016694A  _spritesheet_21_metasprite_0       spritesheet_21
     0016695E  _spritesheet_21_metasprite_1       spritesheet_21
     00166972  _spritesheet_21_metasprite_2       spritesheet_21
     00166986  _spritesheet_21_metasprite_3       spritesheet_21
     00166992  _spritesheet_21_metasprite_4       spritesheet_21
     0016699E  _spritesheet_21_metasprites        spritesheet_21
     001669A8  _spritesheet_21_animations         spritesheet_21
     001669B8  _spritesheet_21_animations_looku   spritesheet_21
     001669BA  _spritesheet_21                    spritesheet_21
     001669CD  ___func_spritesheet_23             spritesheet_23
     001669CD  _spritesheet_23_metasprite_0       spritesheet_23
     001669D1  _spritesheet_23_metasprite_1       spritesheet_23
     001669E5  _spritesheet_23_metasprite_2       spritesheet_23
     001669F9  _spritesheet_23_metasprite_3       spritesheet_23
     00166A0D  _spritesheet_23_metasprite_4       spritesheet_23
     00166A21  _spritesheet_23_metasprites        spritesheet_23
     00166A2B  _spritesheet_23_animations         spritesheet_23
     00166A3B  _spritesheet_23_animations_looku   spritesheet_23
     00166A3D  _spritesheet_23                    spritesheet_23
     00166A50  ___func_spritesheet_26             spritesheet_26
     00166A50  _spritesheet_26_metasprite_0       spritesheet_26
     00166A60  _spritesheet_26_metasprite_1       spritesheet_26
     00166A70  _spritesheet_26_metasprite_2       spritesheet_26
     00166A80  _spritesheet_26_metasprite_3       spritesheet_26
ASxxxx Linker V03.00 + NoICE + sdld,  page 90.
Hexadecimal  [32-Bits]

Area                                    Addr        Size        Decimal Bytes (Attributes)
--------------------------------        ----        ----        ------- ----- ------------
_CODE_22                            00164000    00003FFE =       16382. bytes (REL,CON)

      Value  Global                              Global Defined In Module
      -----  --------------------------------   ------------------------
     00166A90  _spritesheet_26_metasprite_4       spritesheet_26
     00166AA0  _spritesheet_26_metasprite_5       spritesheet_26
     00166AB0  _spritesheet_26_metasprites        spritesheet_26
     00166ABC  _spritesheet_26_animations         spritesheet_26
     00166ACC  _spritesheet_26_animations_looku   spritesheet_26
     00166ACE  _spritesheet_26                    spritesheet_26
     00166AE1  ___func_spritesheet_30             spritesheet_30
     00166AE1  _spritesheet_30_metasprite_0       spritesheet_30
     00166AED  _spritesheet_30_metasprite_1       spritesheet_30
     00166AFD  _spritesheet_30_metasprite_2       spritesheet_30
     00166B0D  _spritesheet_30_metasprite_3       spritesheet_30
     00166B19  _spritesheet_30_metasprite_4       spritesheet_30
     00166B29  _spritesheet_30_metasprite_5       spritesheet_30
     00166B39  _spritesheet_30_metasprites        spritesheet_30
     00166B45  _spritesheet_30_animations         spritesheet_30
     00166B55  _spritesheet_30_animations_looku   spritesheet_30
     00166B57  _spritesheet_30                    spritesheet_30
     00166B6A  ___func_spritesheet_32             spritesheet_32
     00166B6A  _spritesheet_32_metasprite_0       spritesheet_32
     00166B7E  _spritesheet_32_metasprite_1       spritesheet_32
     00166B92  _spritesheet_32_metasprite_2       spritesheet_32
     00166BA6  _spritesheet_32_metasprite_3       spritesheet_32
     00166BBA  _spritesheet_32_metasprite_4       spritesheet_32
     00166BCE  _spritesheet_32_metasprite_5       spritesheet_32
     00166BE2  _spritesheet_32_metasprites        spritesheet_32
     00166BEE  _spritesheet_32_animations         spritesheet_32
     00166BFE  _spritesheet_32_animations_looku   spritesheet_32
     00166C00  _spritesheet_32                    spritesheet_32
     00166C13  ___func_spritesheet_33             spritesheet_33
     00166C13  _spritesheet_33_metasprite_0       spritesheet_33
     00166C17  _spritesheet_33_metasprite_1       spritesheet_33
     00166C2B  _spritesheet_33_metasprite_2       spritesheet_33
     00166C3F  _spritesheet_33_metasprite_3       spritesheet_33
     00166C53  _spritesheet_33_metasprite_4       spritesheet_33
     00166C67  _spritesheet_33_metasprites        spritesheet_33
     00166C71  _spritesheet_33_animations         spritesheet_33
     00166C81  _spritesheet_33_animations_looku   spritesheet_33
     00166C83  _spritesheet_33                    spritesheet_33
     00166C96  ___func_spritesheet_34             spritesheet_34
     00166C96  _spritesheet_34_metasprite_0       spritesheet_34
     00166C9A  _spritesheet_34_metasprite_1       spritesheet_34
     00166CAE  _spritesheet_34_metasprite_2       spritesheet_34
     00166CC2  _spritesheet_34_metasprite_3       spritesheet_34
     00166CD6  _spritesheet_34_metasprite_4       spritesheet_34
     00166CEA  _spritesheet_34_metasprites        spritesheet_34
     00166CF4  _spritesheet_34_animations         spritesheet_34
     00166D04  _spritesheet_34_animations_looku   spritesheet_34
     00166D06  _spritesheet_34                    spritesheet_34
     00166D19  ___func_spritesheet_36             spritesheet_36
     00166D19  _spritesheet_36_metasprite_0       spritesheet_36
     00166D1D  _spritesheet_36_metasprite_1       spritesheet_36
ASxxxx Linker V03.00 + NoICE + sdld,  page 91.
Hexadecimal  [32-Bits]

Area                                    Addr        Size        Decimal Bytes (Attributes)
--------------------------------        ----        ----        ------- ----- ------------
_CODE_22                            00164000    00003FFE =       16382. bytes (REL,CON)

      Value  Global                              Global Defined In Module
      -----  --------------------------------   ------------------------
     00166D31  _spritesheet_36_metasprite_2       spritesheet_36
     00166D45  _spritesheet_36_metasprite_3       spritesheet_36
     00166D59  _spritesheet_36_metasprite_4       spritesheet_36
     00166D6D  _spritesheet_36_metasprites        spritesheet_36
     00166D77  _spritesheet_36_animations         spritesheet_36
     00166D87  _spritesheet_36_animations_looku   spritesheet_36
     00166D89  _spritesheet_36                    spritesheet_36
     00166D9C  ___func_spritesheet_44             spritesheet_44
     00166D9C  _spritesheet_44_metasprite_0       spritesheet_44
     00166DA0  _spritesheet_44_metasprite_1       spritesheet_44
     00166DC4  _spritesheet_44_metasprite_2       spritesheet_44
     00166DE8  _spritesheet_44_metasprite_3       spritesheet_44
     00166E0C  _spritesheet_44_metasprite_4       spritesheet_44
     00166E30  _spritesheet_44_metasprites        spritesheet_44
     00166E3A  _spritesheet_44_animations         spritesheet_44
     00166E4A  _spritesheet_44_animations_looku   spritesheet_44
     00166E4C  _spritesheet_44                    spritesheet_44
     00166E5F  ___func_spritesheet_57             spritesheet_57
     00166E5F  _spritesheet_57_metasprite_0       spritesheet_57
     00166E73  _spritesheet_57_metasprite_1       spritesheet_57
     00166E87  _spritesheet_57_metasprite_2       spritesheet_57
     00166E8B  _spritesheet_57_metasprite_3       spritesheet_57
     00166E9F  _spritesheet_57_metasprite_4       spritesheet_57
     00166EB3  _spritesheet_57_metasprites        spritesheet_57
     00166EC1  _spritesheet_57_animations         spritesheet_57
     00166ED1  _spritesheet_57_animations_looku   spritesheet_57
     00166ED3  _spritesheet_57                    spritesheet_57
     00166EE6  ___func_tileset_18                 tileset_18
     00166EE6  _tileset_18                        tileset_18
     00166F68  ___func_tileset_20                 tileset_20
     00166F68  _tileset_20                        tileset_20
     00166FEA  ___func_tileset_31                 tileset_31
     00166FEA  _tileset_31                        tileset_31
     0016706C  ___func_tileset_36                 tileset_36
     0016706C  _tileset_36                        tileset_36
     0016712E  ___func_tileset_37                 tileset_37
     0016712E  _tileset_37                        tileset_37
     001671B0  ___func_tileset_38                 tileset_38
     001671B0  _tileset_38                        tileset_38
     00167272  ___func_tileset_39                 tileset_39
     00167272  _tileset_39                        tileset_39
     001672F4  ___func_tileset_40                 tileset_40
     001672F4  _tileset_40                        tileset_40
     00167396  ___func_tileset_42                 tileset_42
     00167396  _tileset_42                        tileset_42
     00167438  ___func_tileset_43                 tileset_43
     00167438  _tileset_43                        tileset_43
     001674FA  ___func_tileset_44                 tileset_44
     001674FA  _tileset_44                        tileset_44
     0016757C  ___func_tileset_46                 tileset_46
     0016757C  _tileset_46                        tileset_46
ASxxxx Linker V03.00 + NoICE + sdld,  page 92.
Hexadecimal  [32-Bits]

Area                                    Addr        Size        Decimal Bytes (Attributes)
--------------------------------        ----        ----        ------- ----- ------------
_CODE_22                            00164000    00003FFE =       16382. bytes (REL,CON)

      Value  Global                              Global Defined In Module
      -----  --------------------------------   ------------------------
     0016761E  ___func_tileset_49                 tileset_49
     0016761E  _tileset_49                        tileset_49
     001676E0  ___func_tileset_50                 tileset_50
     001676E0  _tileset_50                        tileset_50
     00167782  ___func_tileset_53                 tileset_53
     00167782  _tileset_53                        tileset_53
     00167824  ___func_tileset_54                 tileset_54
     00167824  _tileset_54                        tileset_54
     001678A6  ___func_tileset_55                 tileset_55
     001678A6  _tileset_55                        tileset_55
     00167948  ___func_tileset_56                 tileset_56
     00167948  _tileset_56                        tileset_56
     001679CA  ___func_tileset_57                 tileset_57
     001679CA  _tileset_57                        tileset_57
     00167A4C  ___func_tileset_58                 tileset_58
     00167A4C  _tileset_58                        tileset_58
     00167ACE  ___func_tileset_60                 tileset_60
     00167ACE  _tileset_60                        tileset_60
     00167B70  ___func_tileset_61                 tileset_61
     00167B70  _tileset_61                        tileset_61
     00167C12  ___func_tileset_63                 tileset_63
     00167C12  _tileset_63                        tileset_63
     00167CB4  ___func_tileset_65                 tileset_65
     00167CB4  _tileset_65                        tileset_65
     00167D56  ___func_tileset_67                 tileset_67
     00167D56  _tileset_67                        tileset_67
     00167DF8  ___func_tileset_69                 tileset_69
     00167DF8  _tileset_69                        tileset_69
     00167E9A  ___func_tileset_72                 tileset_72
     00167E9A  _tileset_72                        tileset_72
     00167F5C  ___func_tileset_73                 tileset_73
     00167F5C  _tileset_73                        tileset_73

ASxxxx Linker V03.00 + NoICE + sdld,  page 93.
Hexadecimal  [32-Bits]

Area                                    Addr        Size        Decimal Bytes (Attributes)
--------------------------------        ----        ----        ------- ----- ------------
_CODE_23                            00174000    00004000 =       16384. bytes (REL,CON)

      Value  Global                              Global Defined In Module
      -----  --------------------------------   ------------------------
     00174000  ___func_palette_0                  palette_0
     00174000  _palette_0                         palette_0
     00174043  ___func_palette_1                  palette_1
     00174043  _palette_1                         palette_1
     00174086  ___func_palette_10                 palette_10
     00174086  _palette_10                        palette_10
     001740C9  ___func_scene_10_projectiles       scene_10_projectiles
     001740C9  _scene_10_projectiles              scene_10_projectiles
     0017410E  ___func_scene_12_projectiles       scene_12_projectiles
     0017410E  _scene_12_projectiles              scene_12_projectiles
     00174181  ___func_scene_16_projectiles       scene_16_projectiles
     00174181  _scene_16_projectiles              scene_16_projectiles
     001741C6  ___func_scene_20_projectiles       scene_20_projectiles
     001741C6  _scene_20_projectiles              scene_20_projectiles
     0017420B  ___func_scene_22_projectiles       scene_22_projectiles
     0017420B  _scene_22_projectiles              scene_22_projectiles
     00174250  ___func_scene_24_projectiles       scene_24_projectiles
     00174250  _scene_24_projectiles              scene_24_projectiles
     001742C3  ___func_scene_26_projectiles       scene_26_projectiles
     001742C3  _scene_26_projectiles              scene_26_projectiles
     00174308  ___func_scene_28_projectiles       scene_28_projectiles
     00174308  _scene_28_projectiles              scene_28_projectiles
     00174364  ___func_scene_30_projectiles       scene_30_projectiles
     00174364  _scene_30_projectiles              scene_30_projectiles
     001743D7  ___func_scene_30_triggers          scene_30_triggers
     001743D7  _scene_30_triggers                 scene_30_triggers
     0017442F  ___func_scene_32_projectiles       scene_32_projectiles
     0017442F  _scene_32_projectiles              scene_32_projectiles
     00174474  ___func_scene_34_projectiles       scene_34_projectiles
     00174474  _scene_34_projectiles              scene_34_projectiles
     001744D0  ___func_scene_36_projectiles       scene_36_projectiles
     001744D0  _scene_36_projectiles              scene_36_projectiles
     00174543  ___func_scene_45_actors            scene_45_actors
     00174543  _scene_45_actors                   scene_45_actors
     001745A7  _script_s10a1_update               script_s10a1_update
     0017460C  _script_s10a10_update              script_s10a10_update
     0017466C  _script_s10a15_update              script_s10a15_update
     001746B4  _script_s10a16_update              script_s10a16_update
     00174714  _script_s10a17_update              script_s10a17_update
     00174774  _script_s10a18_update              script_s10a18_update
     001747D4  _script_s10a2_interact             script_s10a2_interact
     0017483D  _script_s10a5_update               script_s10a5_update
     00174885  _script_s10a7_update               script_s10a7_update
     001748CD  _script_s10a8_update               script_s10a8_update
     00174915  _script_s10a9_update               script_s10a9_update
     0017495D  _script_s11_init                   script_s11_init
     001749D7  _script_s12a10_update              script_s12a10_update
     00174A41  _script_s12a11_update              script_s12a11_update
     00174A89  _script_s12a12_update              script_s12a12_update
     00174AE9  _script_s12a13_update              script_s12a13_update
ASxxxx Linker V03.00 + NoICE + sdld,  page 94.
Hexadecimal  [32-Bits]

Area                                    Addr        Size        Decimal Bytes (Attributes)
--------------------------------        ----        ----        ------- ----- ------------
_CODE_23                            00174000    00004000 =       16384. bytes (REL,CON)

      Value  Global                              Global Defined In Module
      -----  --------------------------------   ------------------------
     00174B31  _script_s12a14_update              script_s12a14_update
     00174B79  _script_s12a15_update              script_s12a15_update
     00174BE3  _script_s12a16_update              script_s12a16_update
     00174C2B  _script_s12a17_interact            script_s12a17_interact
     00174C94  _script_s12a18_update              script_s12a18_update
     00174CDC  _script_s12a4_update               script_s12a4_update
     00174D24  _script_s12a5_update               script_s12a5_update
     00174D8E  _script_s12a7_update               script_s12a7_update
     00174DD6  _script_s12a8_update               script_s12a8_update
     00174E1E  _script_s12a9_update               script_s12a9_update
     00174E66  _script_s13_init                   script_s13_init
     00174EE0  _script_s14a10_update              script_s14a10_update
     00174F28  _script_s14a12_update              script_s14a12_update
     00174F70  _script_s14a13_update              script_s14a13_update
     00174FB8  _script_s14a16_update              script_s14a16_update
     00175000  _script_s14a17_update              script_s14a17_update
     00175048  _script_s14a19_interact            script_s14a19_interact
     001750B1  _script_s14a6_update               script_s14a6_update
     001750F9  _script_s14a7_update               script_s14a7_update
     00175141  _script_s14a9_update               script_s14a9_update
     00175189  _script_s15_init                   script_s15_init
     00175203  _script_s16a12_update              script_s16a12_update
     0017524B  _script_s16a14_update              script_s16a14_update
     00175293  _script_s16a15_update              script_s16a15_update
     001752DB  _script_s16a16_interact            script_s16a16_interact
     00175344  _script_s16a4_update               script_s16a4_update
     0017538C  _script_s16a5_update               script_s16a5_update
     001753D4  _script_s16a6_update               script_s16a6_update
     0017541C  _script_s16a9_update               script_s16a9_update
     00175464  _script_s17_init                   script_s17_init
     001754DE  _script_s18a10_update              script_s18a10_update
     00175526  _script_s18a11_update              script_s18a11_update
     0017556E  _script_s18a13_update              script_s18a13_update
     001755B6  _script_s18a14_update              script_s18a14_update
     001755FE  _script_s18a15_update              script_s18a15_update
     00175646  _script_s18a17_update              script_s18a17_update
     0017568E  _script_s18a18_update              script_s18a18_update
     001756D6  _script_s18a19_interact            script_s18a19_interact
     0017573F  _script_s18a4_update               script_s18a4_update
     00175787  _script_s18a5_update               script_s18a5_update
     001757CF  _script_s18a6_update               script_s18a6_update
     00175817  _script_s18a8_update               script_s18a8_update
     0017585F  _script_s18a9_update               script_s18a9_update
     001758A7  _script_s19_init                   script_s19_init
     00175921  _script_s20a5_interact             script_s20a5_interact
     0017598A  _script_s21_init                   script_s21_init
     00175A04  _script_s22a10_update              script_s22a10_update
     00175A64  _script_s22a12_update              script_s22a12_update
     00175AAC  _script_s22a14_update              script_s22a14_update
     00175B0C  _script_s22a15_update              script_s22a15_update
     00175B6C  _script_s22a18_interact            script_s22a18_interact
ASxxxx Linker V03.00 + NoICE + sdld,  page 95.
Hexadecimal  [32-Bits]

Area                                    Addr        Size        Decimal Bytes (Attributes)
--------------------------------        ----        ----        ------- ----- ------------
_CODE_23                            00174000    00004000 =       16384. bytes (REL,CON)

      Value  Global                              Global Defined In Module
      -----  --------------------------------   ------------------------
     00175BD5  _script_s22a6_update               script_s22a6_update
     00175C35  _script_s22a9_update               script_s22a9_update
     00175C7D  _script_s22t1_interact             script_s22t1_interact
     00175CC1  _script_s23_init                   script_s23_init
     00175D3B  _script_s24a11_update              script_s24a11_update
     00175D96  _script_s24a13_update              script_s24a13_update
     00175DDE  _script_s24a14_update              script_s24a14_update
     00175E26  _script_s24a16_update              script_s24a16_update
     00175E81  _script_s24a17_update              script_s24a17_update
     00175EC9  _script_s24a18_update              script_s24a18_update
     00175F11  _script_s24a19_interact            script_s24a19_interact
     00175F7A  _script_s24a2_update               script_s24a2_update
     00175FC2  _script_s24a6_update               script_s24a6_update
     0017600A  _script_s24a7_update               script_s24a7_update
     00176052  _script_s24a8_update               script_s24a8_update
     0017609A  _script_s25_init                   script_s25_init
     00176114  _script_s26a11_update              script_s26a11_update
     0017617E  _script_s26a12_update              script_s26a12_update
     001761C6  _script_s26a13_update              script_s26a13_update
     0017620E  _script_s26a14_interact            script_s26a14_interact
     00176277  _script_s26a15_update              script_s26a15_update
     001762E1  _script_s26a16_update              script_s26a16_update
     00176329  _script_s26a17_update              script_s26a17_update
     00176371  _script_s26a18_update              script_s26a18_update
     001763CC  _script_s26a19_update              script_s26a19_update
     00176427  _script_s26a4_update               script_s26a4_update
     0017646F  _script_s26a6_update               script_s26a6_update
     001764B7  _script_s26a8_update               script_s26a8_update
     001764FF  _script_s26a9_update               script_s26a9_update
     00176547  _script_s26t1_interact             script_s26t1_interact
     0017658B  _script_s26t2_interact             script_s26t2_interact
     001765CF  _script_s27_init                   script_s27_init
     00176649  _script_s28a3_interact             script_s28a3_interact
     001766B2  _script_s29_init                   script_s29_init
     00176731  _script_s30a11_update              script_s30a11_update
     00176779  _script_s30a15_update              script_s30a15_update
     001767C1  _script_s30a17_interact            script_s30a17_interact
     0017682A  _script_s30a5_update               script_s30a5_update
     00176872  _script_s30a8_update               script_s30a8_update
     001768BA  _script_s31_init                   script_s31_init
     00176934  _script_s32a10_update              script_s32a10_update
     0017697C  _script_s32a11_update              script_s32a11_update
     001769C4  _script_s32a12_update              script_s32a12_update
     00176A0C  _script_s32a15_update              script_s32a15_update
     00176A54  _script_s32a16_update              script_s32a16_update
     00176A9C  _script_s32a17_update              script_s32a17_update
     00176AE4  _script_s32a18_update              script_s32a18_update
     00176B2C  _script_s32a19_interact            script_s32a19_interact
     00176B95  _script_s32a2_update               script_s32a2_update
     00176BDD  _script_s32a5_update               script_s32a5_update
     00176C25  _script_s32a7_update               script_s32a7_update
ASxxxx Linker V03.00 + NoICE + sdld,  page 96.
Hexadecimal  [32-Bits]

Area                                    Addr        Size        Decimal Bytes (Attributes)
--------------------------------        ----        ----        ------- ----- ------------
_CODE_23                            00174000    00004000 =       16384. bytes (REL,CON)

      Value  Global                              Global Defined In Module
      -----  --------------------------------   ------------------------
     00176C6D  _script_s32t1_interact             script_s32t1_interact
     00176CC3  _script_s32t2_interact             script_s32t2_interact
     00176D19  _script_s33_init                   script_s33_init
     00176D93  _script_s34a10_update              script_s34a10_update
     00176E05  _script_s34a11_update              script_s34a11_update
     00176E4D  _script_s34a13_update              script_s34a13_update
     00176EBF  _script_s34a15_update              script_s34a15_update
     00176F31  _script_s34a16_update              script_s34a16_update
     00176F79  _script_s34a17_update              script_s34a17_update
     00176FEB  _script_s34a18_interact            script_s34a18_interact
     00177054  _script_s34a3_update               script_s34a3_update
     001770C6  _script_s34a6_update               script_s34a6_update
     00177138  _script_s34a7_update               script_s34a7_update
     001771AA  _script_s34t1_interact             script_s34t1_interact
     00177212  _script_s35_init                   script_s35_init
     0017728C  _script_s36a4_interact             script_s36a4_interact
     001772FB  _script_s37_init                   script_s37_init
     00177379  _script_s40_init                   script_s40_init
     001773F3  _script_s41_init                   script_s41_init
     0017746D  _script_s42_init                   script_s42_init
     001774E7  _script_s43_init                   script_s43_init
     0017754D  _script_s45_init                   script_s45_init
     001775CD  _script_s7_init                    script_s7_init
     00177647  _script_s8a1_update                script_s8a1_update
     001776AC  _script_s8a11_update               script_s8a11_update
     001776F4  _script_s8a12_update               script_s8a12_update
     0017773C  _script_s8a13_update               script_s8a13_update
     00177784  _script_s8a14_update               script_s8a14_update
     001777CC  _script_s8a15_update               script_s8a15_update
     00177814  _script_s8a16_update               script_s8a16_update
     0017785C  _script_s8a17_update               script_s8a17_update
     001778A4  _script_s8a2_interact              script_s8a2_interact
     0017790D  _script_s8a3_update                script_s8a3_update
     00177955  _script_s8a5_update                script_s8a5_update
     0017799D  _script_s8a6_update                script_s8a6_update
     001779E5  _script_s8a7_update                script_s8a7_update
     00177A2D  _script_s8a8_update                script_s8a8_update
     00177A75  _script_s8a9_update                script_s8a9_update
     00177ABD  _script_s9_init                    script_s9_init
     00177B37  ___func_spritesheet_20             spritesheet_20
     00177B37  _spritesheet_20_metasprite_0       spritesheet_20
     00177B4F  _spritesheet_20_metasprite_1       spritesheet_20
     00177B53  _spritesheet_20_metasprites        spritesheet_20
     00177B57  _spritesheet_20_animations         spritesheet_20
     00177B67  _spritesheet_20_animations_looku   spritesheet_20
     00177B69  _spritesheet_20                    spritesheet_20
     00177B7C  ___func_spritesheet_25             spritesheet_25
     00177B7C  _spritesheet_25_metasprite_0       spritesheet_25
     00177B8C  _spritesheet_25_metasprite_1       spritesheet_25
     00177B9C  _spritesheet_25_metasprite_2       spritesheet_25
     00177BA8  _spritesheet_25_metasprite_3       spritesheet_25
ASxxxx Linker V03.00 + NoICE + sdld,  page 97.
Hexadecimal  [32-Bits]

Area                                    Addr        Size        Decimal Bytes (Attributes)
--------------------------------        ----        ----        ------- ----- ------------
_CODE_23                            00174000    00004000 =       16384. bytes (REL,CON)

      Value  Global                              Global Defined In Module
      -----  --------------------------------   ------------------------
     00177BB4  _spritesheet_25_metasprite_4       spritesheet_25
     00177BC0  _spritesheet_25_metasprite_5       spritesheet_25
     00177BCC  _spritesheet_25_metasprites        spritesheet_25
     00177BD8  _spritesheet_25_animations         spritesheet_25
     00177BE8  _spritesheet_25_animations_looku   spritesheet_25
     00177BEA  _spritesheet_25                    spritesheet_25
     00177BFD  ___func_spritesheet_28             spritesheet_28
     00177BFD  _spritesheet_28_metasprite_0       spritesheet_28
     00177C01  _spritesheet_28_metasprite_1       spritesheet_28
     00177C11  _spritesheet_28_metasprite_2       spritesheet_28
     00177C21  _spritesheet_28_metasprite_3       spritesheet_28
     00177C31  _spritesheet_28_metasprite_4       spritesheet_28
     00177C41  _spritesheet_28_metasprites        spritesheet_28
     00177C4B  _spritesheet_28_animations         spritesheet_28
     00177C5B  _spritesheet_28_animations_looku   spritesheet_28
     00177C5D  _spritesheet_28                    spritesheet_28
     00177C70  ___func_spritesheet_41             spritesheet_41
     00177C70  _spritesheet_41_metasprite_0       spritesheet_41
     00177C74  _spritesheet_41_metasprite_1       spritesheet_41
     00177C80  _spritesheet_41_metasprite_2       spritesheet_41
     00177C8C  _spritesheet_41_metasprite_3       spritesheet_41
     00177C98  _spritesheet_41_metasprite_4       spritesheet_41
     00177CA4  _spritesheet_41_metasprites        spritesheet_41
     00177CAE  _spritesheet_41_animations         spritesheet_41
     00177CBE  _spritesheet_41_animations_looku   spritesheet_41
     00177CC0  _spritesheet_41                    spritesheet_41
     00177CD3  ___func_spritesheet_52             spritesheet_52
     00177CD3  _spritesheet_52_metasprite_0       spritesheet_52
     00177CE7  _spritesheet_52_metasprite_1       spritesheet_52
     00177CFB  _spritesheet_52_metasprites        spritesheet_52
     00177CFF  _spritesheet_52_animations         spritesheet_52
     00177D0F  _spritesheet_52_animations_looku   spritesheet_52
     00177D11  _spritesheet_52                    spritesheet_52
     00177D24  ___func_spritesheet_54             spritesheet_54
     00177D24  _spritesheet_54_metasprite_0       spritesheet_54
     00177D28  _spritesheet_54_metasprite_1       spritesheet_54
     00177D34  _spritesheet_54_metasprite_2       spritesheet_54
     00177D40  _spritesheet_54_metasprite_3       spritesheet_54
     00177D4C  _spritesheet_54_metasprite_4       spritesheet_54
     00177D58  _spritesheet_54_metasprites        spritesheet_54
     00177D62  _spritesheet_54_animations         spritesheet_54
     00177D72  _spritesheet_54_animations_looku   spritesheet_54
     00177D74  _spritesheet_54                    spritesheet_54
     00177D87  ___func_spritesheet_56             spritesheet_56
     00177D87  _spritesheet_56_metasprite_0       spritesheet_56
     00177DA3  _spritesheet_56_metasprite_1       spritesheet_56
     00177DBF  _spritesheet_56_metasprites        spritesheet_56
     00177DC3  _spritesheet_56_animations         spritesheet_56
     00177DD3  _spritesheet_56_animations_looku   spritesheet_56
     00177DD5  _spritesheet_56                    spritesheet_56
     00177DE8  ___func_spritesheet_58             spritesheet_58
ASxxxx Linker V03.00 + NoICE + sdld,  page 98.
Hexadecimal  [32-Bits]

Area                                    Addr        Size        Decimal Bytes (Attributes)
--------------------------------        ----        ----        ------- ----- ------------
_CODE_23                            00174000    00004000 =       16384. bytes (REL,CON)

      Value  Global                              Global Defined In Module
      -----  --------------------------------   ------------------------
     00177DE8  _spritesheet_58_metasprite_0       spritesheet_58
     00177DFC  _spritesheet_58_metasprite_1       spritesheet_58
     00177E10  _spritesheet_58_metasprites        spritesheet_58
     00177E14  _spritesheet_58_animations         spritesheet_58
     00177E24  _spritesheet_58_animations_looku   spritesheet_58
     00177E26  _spritesheet_58                    spritesheet_58
     00177E39  ___func_spritesheet_61             spritesheet_61
     00177E39  _spritesheet_61_metasprite_0       spritesheet_61
     00177E55  _spritesheet_61_metasprite_1       spritesheet_61
     00177E71  _spritesheet_61_metasprites        spritesheet_61
     00177E75  _spritesheet_61_animations         spritesheet_61
     00177E85  _spritesheet_61_animations_looku   spritesheet_61
     00177E87  _spritesheet_61                    spritesheet_61
     00177E9A  ___func_tileset_62                 tileset_62
     00177E9A  _tileset_62                        tileset_62
     00177EFC  ___func_tileset_68                 tileset_68
     00177EFC  _tileset_68                        tileset_68
     00177F7E  ___func_tileset_74                 tileset_74
     00177F7E  _tileset_74                        tileset_74
ASxxxx Linker V03.00 + NoICE + sdld,  page 99.
Hexadecimal  [32-Bits]

Area                                    Addr        Size        Decimal Bytes (Attributes)
--------------------------------        ----        ----        ------- ----- ------------
_CODE_17                            00114000    00003FFF =       16383. bytes (REL,CON)

      Value  Global                              Global Defined In Module
      -----  --------------------------------   ------------------------
     00114000  ___func_scene_0_collisions         scene_0_collisions
     00114000  _scene_0_collisions                scene_0_collisions
     00114168  ___func_scene_1_collisions         scene_1_collisions
     00114168  _scene_1_collisions                scene_1_collisions
     001142D0  ___func_scene_11_collisions        scene_11_collisions
     001142D0  _scene_11_collisions               scene_11_collisions
     00114438  ___func_scene_12_actors            scene_12_actors
     00114438  _scene_12_actors                   scene_12_actors
     001147EE  ___func_scene_13_collisions        scene_13_collisions
     001147EE  _scene_13_collisions               scene_13_collisions
     00114956  ___func_scene_15_collisions        scene_15_collisions
     00114956  _scene_15_collisions               scene_15_collisions
     00114ABE  ___func_scene_17_collisions        scene_17_collisions
     00114ABE  _scene_17_collisions               scene_17_collisions
     00114C26  ___func_scene_19_collisions        scene_19_collisions
     00114C26  _scene_19_collisions               scene_19_collisions
     00114D8E  ___func_scene_2_collisions         scene_2_collisions
     00114D8E  _scene_2_collisions                scene_2_collisions
     00114EF6  ___func_scene_22_actors            scene_22_actors
     00114EF6  _scene_22_actors                   scene_22_actors
     001152AC  ___func_scene_24_actors            scene_24_actors
     001152AC  _scene_24_actors                   scene_24_actors
     00115694  ___func_scene_26_actors            scene_26_actors
     00115694  _scene_26_actors                   scene_26_actors
     00115A7C  ___func_scene_3_sprites            scene_3_sprites
     00115A7C  _scene_3_sprites                   scene_3_sprites
     00115A7F  ___func_scene_30_actors            scene_30_actors
     00115A7F  _scene_30_actors                   scene_30_actors
     00115E67  ___func_scene_32_actors            scene_32_actors
     00115E67  _scene_32_actors                   scene_32_actors
     0011624F  ___func_scene_34_actors            scene_34_actors
     0011624F  _scene_34_actors                   scene_34_actors
     00116605  _script_input_15                   script_input_15
     001167CA  _script_input_2                    script_input_2
     0011698F  _script_input_4                    script_input_4
     00116B54  _script_input_6                    script_input_6
     00116D2B  _script_input_7                    script_input_7
     00116F02  _script_input_9                    script_input_9
     001170C7  _script_s32a12_interact            script_s32a12_interact
     001171B7  _script_s36a0_interact             script_s36a0_interact
     00117343  ___func_tileset_15                 tileset_15
     00117343  _tileset_15                        tileset_15
     001176F5  ___func_tileset_45                 tileset_45
     001176F5  _tileset_45                        tileset_45
     00117877  ___func_tileset_51                 tileset_51
     00117877  _tileset_51                        tileset_51
     001179F9  ___func_tileset_64                 tileset_64
     001179F9  _tileset_64                        tileset_64
     00117CFB  ___func_tileset_70                 tileset_70
     00117CFB  _tileset_70                        tileset_70
ASxxxx Linker V03.00 + NoICE + sdld,  page 100.
Hexadecimal  [32-Bits]

Area                                    Addr        Size        Decimal Bytes (Attributes)
--------------------------------        ----        ----        ------- ----- ------------
_CODE_17                            00114000    00003FFF =       16383. bytes (REL,CON)

      Value  Global                              Global Defined In Module
      -----  --------------------------------   ------------------------
     00117E7D  ___func_tileset_75                 tileset_75
     00117E7D  _tileset_75                        tileset_75

ASxxxx Linker V03.00 + NoICE + sdld,  page 101.
Hexadecimal  [32-Bits]

Area                                    Addr        Size        Decimal Bytes (Attributes)
--------------------------------        ----        ----        ------- ----- ------------
_CODE_16                            00104000    00003FFE =       16382. bytes (REL,CON)

      Value  Global                              Global Defined In Module
      -----  --------------------------------   ------------------------
     00104000  ___func_scene_10_actors            scene_10_actors
     00104000  _scene_10_actors                   scene_10_actors
     001043E8  ___func_scene_14_actors            scene_14_actors
     001043E8  _scene_14_actors                   scene_14_actors
     001047D0  ___func_scene_16_actors            scene_16_actors
     001047D0  _scene_16_actors                   scene_16_actors
     00104BB8  ___func_scene_18_actors            scene_18_actors
     00104BB8  _scene_18_actors                   scene_18_actors
     00104FA0  ___func_scene_2_sprites            scene_2_sprites
     00104FA0  _scene_2_sprites                   scene_2_sprites
     00104FA3  _script_s3a0_update                script_s3a0_update
     001051D0  ___func_tilemap_attr_4             tilemap_attr_4
     001051D0  _tilemap_attr_4                    tilemap_attr_4
     00105A40  ___func_tileset_0                  tileset_0
     00105A40  _tileset_0                         tileset_0
     00105FB2  ___func_tileset_1                  tileset_1
     00105FB2  _tileset_1                         tileset_1
     001063D4  ___func_tileset_14                 tileset_14
     001063D4  _tileset_14                        tileset_14
     00106A16  ___func_tileset_16                 tileset_16
     00106A16  _tileset_16                        tileset_16
     001070F8  ___func_tileset_2                  tileset_2
     001070F8  _tileset_2                         tileset_2
     0010751A  ___func_tileset_3                  tileset_3
     0010751A  _tileset_3                         tileset_3
     00107A0C  ___func_tileset_5                  tileset_5
     00107A0C  _tileset_5                         tileset_5
ASxxxx Linker V03.00 + NoICE + sdld,  page 102.
Hexadecimal  [32-Bits]

Area                                    Addr        Size        Decimal Bytes (Attributes)
--------------------------------        ----        ----        ------- ----- ------------
_CODE_5                             00054000    00003FFF =       16383. bytes (REL,CON)

      Value  Global                              Global Defined In Module
      -----  --------------------------------   ------------------------
     00054000  ___func_scene_10_collisions        scene_10_collisions
     00054000  _scene_10_collisions               scene_10_collisions
     00054F78  ___func_scene_12_collisions        scene_12_collisions
     00054F78  _scene_12_collisions               scene_12_collisions
     00055EF0  ___func_scene_14_collisions        scene_14_collisions
     00055EF0  _scene_14_collisions               scene_14_collisions
     00056E68  ___func_scene_16_collisions        scene_16_collisions
     00056E68  _scene_16_collisions               scene_16_collisions
     00057DE0  ___func_scene_43_sprites           scene_43_sprites
     00057DE0  _scene_43_sprites                  scene_43_sprites
     00057DF2  _script_s43a6_update               script_s43a6_update

ASxxxx Linker V03.00 + NoICE + sdld,  page 103.
Hexadecimal  [32-Bits]

Area                                    Addr        Size        Decimal Bytes (Attributes)
--------------------------------        ----        ----        ------- ----- ------------
_CODE_6                             00064000    00004000 =       16384. bytes (REL,CON)

      Value  Global                              Global Defined In Module
      -----  --------------------------------   ------------------------
     00064000  ___func_scene_10_sprites           scene_10_sprites
     00064000  _scene_10_sprites                  scene_10_sprites
     0006401E  ___func_scene_18_collisions        scene_18_collisions
     0006401E  _scene_18_collisions               scene_18_collisions
     00064F96  ___func_scene_22_collisions        scene_22_collisions
     00064F96  _scene_22_collisions               scene_22_collisions
     00065F0E  ___func_scene_24_collisions        scene_24_collisions
     00065F0E  _scene_24_collisions               scene_24_collisions
     00066E86  ___func_scene_26_collisions        scene_26_collisions
     00066E86  _scene_26_collisions               scene_26_collisions
     00067DFE  ___func_tileset_59                 tileset_59
     00067DFE  _tileset_59                        tileset_59
ASxxxx Linker V03.00 + NoICE + sdld,  page 104.
Hexadecimal  [32-Bits]

Area                                    Addr        Size        Decimal Bytes (Attributes)
--------------------------------        ----        ----        ------- ----- ------------
_CODE_19                            00134000    00004000 =       16384. bytes (REL,CON)

      Value  Global                              Global Defined In Module
      -----  --------------------------------   ------------------------
     00134000  ___func_scene_20_actors            scene_20_actors
     00134000  _scene_20_actors                   scene_20_actors
     0013412C  ___func_scene_26_sprites           scene_26_sprites
     0013412C  _scene_26_sprites                  scene_26_sprites
     00134150  ___func_scene_43_actors            scene_43_actors
     00134150  _scene_43_actors                   scene_43_actors
     001342AE  _script_s16a7_update               script_s16a7_update
     001343DA  _script_s16t0_interact             script_s16t0_interact
     001344DB  _script_s18t0_interact             script_s18t0_interact
     001345DC  _script_s20a3_interact             script_s20a3_interact
     001346EA  _script_s20a3_update               script_s20a3_update
     00134842  _script_s22t0_interact             script_s22t0_interact
     00134943  _script_s24t0_interact             script_s24t0_interact
     00134A44  _script_s28a2_interact             script_s28a2_interact
     00134B52  _script_s28a2_update               script_s28a2_update
     00134CB1  _script_s30a12_update              script_s30a12_update
     00134DDD  _script_s30a13_update              script_s30a13_update
     00134F09  _script_s30a7_update               script_s30a7_update
     00135035  _script_s30a9_update               script_s30a9_update
     00135161  _script_s34a14_update              script_s34a14_update
     0013528D  _script_s34a8_update               script_s34a8_update
     001353B9  _script_s34a9_update               script_s34a9_update
     001354E5  _script_s36a0_update               script_s36a0_update
     001355F9  _script_s39a0_update               script_s39a0_update
     0013574E  _script_s6a0_update                script_s6a0_update
     001358A3  ___func_spritesheet_50             spritesheet_50
     001358A3  _spritesheet_50_metasprite_0       spritesheet_50
     001358A7  _spritesheet_50_metasprite_1       spritesheet_50
     001358CB  _spritesheet_50_metasprite_2       spritesheet_50
     001358EF  _spritesheet_50_metasprite_3       spritesheet_50
     00135913  _spritesheet_50_metasprite_4       spritesheet_50
     00135937  _spritesheet_50_metasprite_5       spritesheet_50
     0013595B  _spritesheet_50_metasprite_6       spritesheet_50
     0013597F  _spritesheet_50_metasprites        spritesheet_50
     0013598D  _spritesheet_50_animations         spritesheet_50
     0013599D  _spritesheet_50_animations_looku   spritesheet_50
     0013599F  _spritesheet_50                    spritesheet_50
     001359B2  ___func_tilemap_27                 tilemap_27
     001359B2  _tilemap_27                        tilemap_27
     00135B1A  ___func_tilemap_3                  tilemap_3
     00135B1A  _tilemap_3                         tilemap_3
     00135C82  ___func_tilemap_4                  tilemap_4
     00135C82  _tilemap_4                         tilemap_4
     00135DEA  ___func_tilemap_40                 tilemap_40
     00135DEA  _tilemap_40                        tilemap_40
     00135F52  ___func_tilemap_41                 tilemap_41
     00135F52  _tilemap_41                        tilemap_41
     001360BA  ___func_tilemap_42                 tilemap_42
     001360BA  _tilemap_42                        tilemap_42
     00136222  ___func_tilemap_43                 tilemap_43
ASxxxx Linker V03.00 + NoICE + sdld,  page 105.
Hexadecimal  [32-Bits]

Area                                    Addr        Size        Decimal Bytes (Attributes)
--------------------------------        ----        ----        ------- ----- ------------
_CODE_19                            00134000    00004000 =       16384. bytes (REL,CON)

      Value  Global                              Global Defined In Module
      -----  --------------------------------   ------------------------
     00136222  _tilemap_43                        tilemap_43
     0013638A  ___func_tilemap_6                  tilemap_6
     0013638A  _tilemap_6                         tilemap_6
     001364F2  ___func_tilemap_7                  tilemap_7
     001364F2  _tilemap_7                         tilemap_7
     0013665A  ___func_tilemap_8                  tilemap_8
     0013665A  _tilemap_8                         tilemap_8
     001367C2  ___func_tilemap_9                  tilemap_9
     001367C2  _tilemap_9                         tilemap_9
     0013692A  ___func_tilemap_attr_0             tilemap_attr_0
     0013692A  _tilemap_attr_0                    tilemap_attr_0
     00136A92  ___func_tilemap_attr_1             tilemap_attr_1
     00136A92  _tilemap_attr_1                    tilemap_attr_1
     00136BFA  ___func_tilemap_attr_10            tilemap_attr_10
     00136BFA  _tilemap_attr_10                   tilemap_attr_10
     00136D62  ___func_tilemap_attr_11            tilemap_attr_11
     00136D62  _tilemap_attr_11                   tilemap_attr_11
     00136ECA  ___func_tilemap_attr_12            tilemap_attr_12
     00136ECA  _tilemap_attr_12                   tilemap_attr_12
     00137032  ___func_tilemap_attr_13            tilemap_attr_13
     00137032  _tilemap_attr_13                   tilemap_attr_13
     0013719A  ___func_tilemap_attr_2             tilemap_attr_2
     0013719A  _tilemap_attr_2                    tilemap_attr_2
     00137302  ___func_tilemap_attr_25            tilemap_attr_25
     00137302  _tilemap_attr_25                   tilemap_attr_25
     0013746A  ___func_tilemap_attr_3             tilemap_attr_3
     0013746A  _tilemap_attr_3                    tilemap_attr_3
     001375D2  ___func_tilemap_attr_5             tilemap_attr_5
     001375D2  _tilemap_attr_5                    tilemap_attr_5
     0013773A  ___func_tilemap_attr_6             tilemap_attr_6
     0013773A  _tilemap_attr_6                    tilemap_attr_6
     001378A2  ___func_tilemap_attr_7             tilemap_attr_7
     001378A2  _tilemap_attr_7                    tilemap_attr_7
     00137A0A  ___func_tilemap_attr_8             tilemap_attr_8
     00137A0A  _tilemap_attr_8                    tilemap_attr_8
     00137B72  ___func_tilemap_attr_9             tilemap_attr_9
     00137B72  _tilemap_attr_9                    tilemap_attr_9
     00137CDA  ___func_tileset_41                 tileset_41
     00137CDA  _tileset_41                        tileset_41
     00137DFC  ___func_tileset_66                 tileset_66
     00137DFC  _tileset_66                        tileset_66
     00137EFE  ___func_tileset_71                 tileset_71
     00137EFE  _tileset_71                        tileset_71
ASxxxx Linker V03.00 + NoICE + sdld,  page 106.
Hexadecimal  [32-Bits]

Area                                    Addr        Size        Decimal Bytes (Attributes)
--------------------------------        ----        ----        ------- ----- ------------
_CODE_18                            00124000    00003FFF =       16383. bytes (REL,CON)

      Value  Global                              Global Defined In Module
      -----  --------------------------------   ------------------------
     00124000  ___func_scene_20_collisions        scene_20_collisions
     00124000  _scene_20_collisions               scene_20_collisions
     00124168  ___func_scene_21_collisions        scene_21_collisions
     00124168  _scene_21_collisions               scene_21_collisions
     001242D0  ___func_scene_23_collisions        scene_23_collisions
     001242D0  _scene_23_collisions               scene_23_collisions
     00124438  ___func_scene_25_collisions        scene_25_collisions
     00124438  _scene_25_collisions               scene_25_collisions
     001245A0  ___func_scene_27_collisions        scene_27_collisions
     001245A0  _scene_27_collisions               scene_27_collisions
     00124708  ___func_scene_28_collisions        scene_28_collisions
     00124708  _scene_28_collisions               scene_28_collisions
     00124870  ___func_scene_29_collisions        scene_29_collisions
     00124870  _scene_29_collisions               scene_29_collisions
     001249D8  ___func_scene_3_collisions         scene_3_collisions
     001249D8  _scene_3_collisions                scene_3_collisions
     00124B40  ___func_scene_31_collisions        scene_31_collisions
     00124B40  _scene_31_collisions               scene_31_collisions
     00124CA8  ___func_scene_33_collisions        scene_33_collisions
     00124CA8  _scene_33_collisions               scene_33_collisions
     00124E10  ___func_scene_35_collisions        scene_35_collisions
     00124E10  _scene_35_collisions               scene_35_collisions
     00124F78  ___func_scene_36_collisions        scene_36_collisions
     00124F78  _scene_36_collisions               scene_36_collisions
     001250E0  ___func_scene_37_collisions        scene_37_collisions
     001250E0  _scene_37_collisions               scene_37_collisions
     00125248  ___func_scene_38_collisions        scene_38_collisions
     00125248  _scene_38_collisions               scene_38_collisions
     001253B0  ___func_scene_39_collisions        scene_39_collisions
     001253B0  _scene_39_collisions               scene_39_collisions
     00125518  ___func_scene_4_collisions         scene_4_collisions
     00125518  _scene_4_collisions                scene_4_collisions
     00125680  ___func_scene_40_collisions        scene_40_collisions
     00125680  _scene_40_collisions               scene_40_collisions
     001257E8  ___func_scene_41_collisions        scene_41_collisions
     001257E8  _scene_41_collisions               scene_41_collisions
     00125950  ___func_scene_42_collisions        scene_42_collisions
     00125950  _scene_42_collisions               scene_42_collisions
     00125AB8  ___func_scene_43_collisions        scene_43_collisions
     00125AB8  _scene_43_collisions               scene_43_collisions
     00125C20  ___func_scene_44_collisions        scene_44_collisions
     00125C20  _scene_44_collisions               scene_44_collisions
     00125D88  ___func_scene_5_collisions         scene_5_collisions
     00125D88  _scene_5_collisions                scene_5_collisions
     00125EF0  ___func_scene_6_collisions         scene_6_collisions
     00125EF0  _scene_6_collisions                scene_6_collisions
     00126058  ___func_scene_7_collisions         scene_7_collisions
     00126058  _scene_7_collisions                scene_7_collisions
     001261C0  ___func_scene_9_collisions         scene_9_collisions
     001261C0  _scene_9_collisions                scene_9_collisions
ASxxxx Linker V03.00 + NoICE + sdld,  page 107.
Hexadecimal  [32-Bits]

Area                                    Addr        Size        Decimal Bytes (Attributes)
--------------------------------        ----        ----        ------- ----- ------------
_CODE_18                            00124000    00003FFF =       16383. bytes (REL,CON)

      Value  Global                              Global Defined In Module
      -----  --------------------------------   ------------------------
     00126328  _script_s0_init                    script_s0_init
     001263DF  ___func_tilemap_0                  tilemap_0
     001263DF  _tilemap_0                         tilemap_0
     00126547  ___func_tilemap_1                  tilemap_1
     00126547  _tilemap_1                         tilemap_1
     001266AF  ___func_tilemap_10                 tilemap_10
     001266AF  _tilemap_10                        tilemap_10
     00126817  ___func_tilemap_11                 tilemap_11
     00126817  _tilemap_11                        tilemap_11
     0012697F  ___func_tilemap_12                 tilemap_12
     0012697F  _tilemap_12                        tilemap_12
     00126AE7  ___func_tilemap_13                 tilemap_13
     00126AE7  _tilemap_13                        tilemap_13
     00126C4F  ___func_tilemap_14                 tilemap_14
     00126C4F  _tilemap_14                        tilemap_14
     00126DB7  ___func_tilemap_15                 tilemap_15
     00126DB7  _tilemap_15                        tilemap_15
     00126F1F  ___func_tilemap_16                 tilemap_16
     00126F1F  _tilemap_16                        tilemap_16
     00127087  ___func_tilemap_17                 tilemap_17
     00127087  _tilemap_17                        tilemap_17
     001271EF  ___func_tilemap_18                 tilemap_18
     001271EF  _tilemap_18                        tilemap_18
     00127357  ___func_tilemap_19                 tilemap_19
     00127357  _tilemap_19                        tilemap_19
     001274BF  ___func_tilemap_2                  tilemap_2
     001274BF  _tilemap_2                         tilemap_2
     00127627  ___func_tilemap_20                 tilemap_20
     00127627  _tilemap_20                        tilemap_20
     0012778F  ___func_tilemap_21                 tilemap_21
     0012778F  _tilemap_21                        tilemap_21
     001278F7  ___func_tilemap_22                 tilemap_22
     001278F7  _tilemap_22                        tilemap_22
     00127A5F  ___func_tilemap_23                 tilemap_23
     00127A5F  _tilemap_23                        tilemap_23
     00127BC7  ___func_tilemap_24                 tilemap_24
     00127BC7  _tilemap_24                        tilemap_24
     00127D2F  ___func_tilemap_25                 tilemap_25
     00127D2F  _tilemap_25                        tilemap_25
     00127E97  ___func_tilemap_26                 tilemap_26
     00127E97  _tilemap_26                        tilemap_26

ASxxxx Linker V03.00 + NoICE + sdld,  page 108.
Hexadecimal  [32-Bits]

Area                                    Addr        Size        Decimal Bytes (Attributes)
--------------------------------        ----        ----        ------- ----- ------------
_CODE_20                            00144000    00004000 =       16384. bytes (REL,CON)

      Value  Global                              Global Defined In Module
      -----  --------------------------------   ------------------------
     00144000  ___func_scene_28_actors            scene_28_actors
     00144000  _scene_28_actors                   scene_28_actors
     001440FA  ___func_scene_36_actors            scene_36_actors
     001440FA  _scene_36_actors                   scene_36_actors
     001441F4  _script_input_0                    script_input_0
     001442D7  _script_s10a10_interact            script_s10a10_interact
     001443B1  _script_s10a16_interact            script_s10a16_interact
     0014448B  _script_s10a17_interact            script_s10a17_interact
     00144565  _script_s10a18_interact            script_s10a18_interact
     0014463F  _script_s12a10_interact            script_s12a10_interact
     00144719  _script_s12a12_interact            script_s12a12_interact
     001447F3  _script_s12a15_interact            script_s12a15_interact
     001448CD  _script_s12a5_interact             script_s12a5_interact
     001449A7  _script_s14a10_interact            script_s14a10_interact
     00144A85  _script_s14a11_interact            script_s14a11_interact
     00144B5F  _script_s14a11_update              script_s14a11_update
     00144C41  _script_s14a13_interact            script_s14a13_interact
     00144D1F  _script_s14a14_interact            script_s14a14_interact
     00144DF9  _script_s14a14_update              script_s14a14_update
     00144EDB  _script_s14a17_interact            script_s14a17_interact
     00144FB9  _script_s14a4_interact             script_s14a4_interact
     00145093  _script_s14a4_update               script_s14a4_update
     00145175  _script_s16_p_hit1                 script_s16_p_hit1
     0014526B  _script_s16a14_interact            script_s16a14_interact
     00145349  _script_s16a15_interact            script_s16a15_interact
     00145427  _script_s16a5_interact             script_s16a5_interact
     00145505  _script_s16a6_interact             script_s16a6_interact
     001455E3  _script_s18_p_hit1                 script_s18_p_hit1
     001456D9  _script_s18a12_interact            script_s18a12_interact
     001457B3  _script_s18a12_update              script_s18a12_update
     00145895  _script_s18a16_interact            script_s18a16_interact
     0014596F  _script_s18a16_update              script_s18a16_update
     00145A51  _script_s18a7_interact             script_s18a7_interact
     00145B2B  _script_s18a7_update               script_s18a7_update
     00145C0D  _script_s22_init                   script_s22_init
     00145CF8  _script_s22_p_hit1                 script_s22_p_hit1
     00145DEE  _script_s22a10_interact            script_s22a10_interact
     00145EC8  _script_s22a13_interact            script_s22a13_interact
     00145FA2  _script_s22a14_interact            script_s22a14_interact
     0014607C  _script_s24_init                   script_s24_init
     00146171  _script_s24_p_hit1                 script_s24_p_hit1
     00146267  _script_s24a10_update              script_s24a10_update
     00146349  _script_s24a12_update              script_s24a12_update
     0014642B  _script_s26_p_hit1                 script_s26_p_hit1
     00146521  _script_s26t0_interact             script_s26t0_interact
     00146622  _script_s28_p_hit1                 script_s28_p_hit1
     0014671D  _script_s28t0_interact             script_s28t0_interact
     0014681E  _script_s30_init                   script_s30_init
     001468FF  _script_s30_p_hit1                 script_s30_p_hit1
     001469F5  _script_s30t0_interact             script_s30t0_interact
ASxxxx Linker V03.00 + NoICE + sdld,  page 109.
Hexadecimal  [32-Bits]

Area                                    Addr        Size        Decimal Bytes (Attributes)
--------------------------------        ----        ----        ------- ----- ------------
_CODE_20                            00144000    00004000 =       16384. bytes (REL,CON)

      Value  Global                              Global Defined In Module
      -----  --------------------------------   ------------------------
     00146AF6  _script_s32_init                   script_s32_init
     00146BD7  _script_s32_p_hit1                 script_s32_p_hit1
     00146CCD  _script_s32a10_interact            script_s32a10_interact
     00146DAB  _script_s32a11_interact            script_s32a11_interact
     00146E89  _script_s32a14_update              script_s32a14_update
     00146F6B  _script_s32a15_interact            script_s32a15_interact
     00147049  _script_s32a16_interact            script_s32a16_interact
     00147127  _script_s32a17_interact            script_s32a17_interact
     00147217  _script_s32a18_interact            script_s32a18_interact
     001472F5  _script_s32a2_interact             script_s32a2_interact
     001473E5  _script_s32a5_interact             script_s32a5_interact
     001474C3  _script_s32a7_interact             script_s32a7_interact
     001475B3  _script_s32t0_interact             script_s32t0_interact
     001476B4  _script_s34_p_hit1                 script_s34_p_hit1
     001477AA  _script_s34t0_interact             script_s34t0_interact
     001478AB  _script_s36_p_hit1                 script_s36_p_hit1
     001479A1  _script_s36t0_interact             script_s36t0_interact
     00147AA2  _script_s8a12_interact             script_s8a12_interact
     00147B80  _script_s8a14_interact             script_s8a14_interact
     00147C5E  _script_s8a15_interact             script_s8a15_interact
     00147D3C  _script_s8a7_interact              script_s8a7_interact
     00147E1A  ___func_tileset_19                 tileset_19
     00147E1A  _tileset_19                        tileset_19
     00147E3C  ___func_tileset_47                 tileset_47
     00147E3C  _tileset_47                        tileset_47
     00147F1E  ___func_tileset_48                 tileset_48
     00147F1E  _tileset_48                        tileset_48

ASxxxx Linker V03.00 + NoICE + sdld,  page 110.
Hexadecimal  [32-Bits]

Area                                    Addr        Size        Decimal Bytes (Attributes)
--------------------------------        ----        ----        ------- ----- ------------
_CODE_7                             00074000    00004000 =       16384. bytes (REL,CON)

      Value  Global                              Global Defined In Module
      -----  --------------------------------   ------------------------
     00074000  ___func_scene_30_collisions        scene_30_collisions
     00074000  _scene_30_collisions               scene_30_collisions
     00074F78  ___func_scene_32_collisions        scene_32_collisions
     00074F78  _scene_32_collisions               scene_32_collisions
     00075EF0  ___func_scene_34_collisions        scene_34_collisions
     00075EF0  _scene_34_collisions               scene_34_collisions
     00076E68  ___func_scene_8_collisions         scene_8_collisions
     00076E68  _scene_8_collisions                scene_8_collisions
     00077DE0  _script_input_10                   script_input_10
     00077FB7  ___func_spritesheet_47             spritesheet_47
     00077FB7  _spritesheet_47_metasprite_0       spritesheet_47
     00077FC7  _spritesheet_47_metasprite_1       spritesheet_47
     00077FD7  _spritesheet_47_metasprites        spritesheet_47
     00077FDB  _spritesheet_47_animations         spritesheet_47
     00077FEB  _spritesheet_47_animations_looku   spritesheet_47
     00077FED  _spritesheet_47                    spritesheet_47

ASxxxx Linker V03.00 + NoICE + sdld,  page 111.
Hexadecimal  [32-Bits]

Area                                    Addr        Size        Decimal Bytes (Attributes)
--------------------------------        ----        ----        ------- ----- ------------
_CODE_21                            00154000    00004000 =       16384. bytes (REL,CON)

      Value  Global                              Global Defined In Module
      -----  --------------------------------   ------------------------
     00154000  ___func_scene_44_actors            scene_44_actors
     00154000  _scene_44_actors                   scene_44_actors
     00154064  _script_s10a11_interact            script_s10a11_interact
     00154139  _script_s10a13_interact            script_s10a13_interact
     0015420E  _script_s10a15_interact            script_s10a15_interact
     001542E3  _script_s10a5_interact             script_s10a5_interact
     001543B8  _script_s10a7_interact             script_s10a7_interact
     0015448D  _script_s10a8_interact             script_s10a8_interact
     00154562  _script_s10a9_interact             script_s10a9_interact
     00154637  _script_s12_init                   script_s12_init
     0015470E  _script_s12a11_interact            script_s12a11_interact
     001547E3  _script_s12a13_interact            script_s12a13_interact
     001548B8  _script_s12a14_interact            script_s12a14_interact
     0015498D  _script_s12a16_interact            script_s12a16_interact
     00154A62  _script_s12a18_interact            script_s12a18_interact
     00154B37  _script_s12a4_interact             script_s12a4_interact
     00154C0C  _script_s12a7_interact             script_s12a7_interact
     00154CE1  _script_s12a8_interact             script_s12a8_interact
     00154DB6  _script_s12a9_interact             script_s12a9_interact
     00154E8B  _script_s14a12_interact            script_s14a12_interact
     00154F60  _script_s14a16_interact            script_s14a16_interact
     00155035  _script_s14a6_interact             script_s14a6_interact
     0015510A  _script_s14a7_interact             script_s14a7_interact
     001551DF  _script_s14a9_interact             script_s14a9_interact
     001552B4  _script_s16a12_interact            script_s16a12_interact
     00155389  _script_s16a17_update              script_s16a17_update
     00155461  _script_s16a18_update              script_s16a18_update
     00155539  _script_s16a19_update              script_s16a19_update
     00155611  _script_s16a4_interact             script_s16a4_interact
     001556E6  _script_s16a9_interact             script_s16a9_interact
     001557BB  _script_s18a11_interact            script_s18a11_interact
     00155890  _script_s18a13_interact            script_s18a13_interact
     00155965  _script_s18a14_interact            script_s18a14_interact
     00155A3A  _script_s18a15_interact            script_s18a15_interact
     00155B0F  _script_s18a18_interact            script_s18a18_interact
     00155BE4  _script_s18a4_interact             script_s18a4_interact
     00155CB9  _script_s18a5_interact             script_s18a5_interact
     00155D8E  _script_s22a12_interact            script_s22a12_interact
     00155E63  _script_s22a15_interact            script_s22a15_interact
     00155F3D  _script_s22a16_interact            script_s22a16_interact
     00156017  _script_s22a17_interact            script_s22a17_interact
     001560F1  _script_s22a6_interact             script_s22a6_interact
     001561CB  _script_s22a8_interact             script_s22a8_interact
     001562A5  _script_s22a9_interact             script_s22a9_interact
     0015637A  _script_s24a10_interact            script_s24a10_interact
     00156454  _script_s24a11_interact            script_s24a11_interact
     0015652E  _script_s24a12_interact            script_s24a12_interact
     00156608  _script_s24a14_interact            script_s24a14_interact
     001566DD  _script_s24a16_interact            script_s24a16_interact
     001567B7  _script_s24a17_interact            script_s24a17_interact
ASxxxx Linker V03.00 + NoICE + sdld,  page 112.
Hexadecimal  [32-Bits]

Area                                    Addr        Size        Decimal Bytes (Attributes)
--------------------------------        ----        ----        ------- ----- ------------
_CODE_21                            00154000    00004000 =       16384. bytes (REL,CON)

      Value  Global                              Global Defined In Module
      -----  --------------------------------   ------------------------
     0015688C  _script_s24a2_interact             script_s24a2_interact
     00156961  _script_s24a6_interact             script_s24a6_interact
     00156A36  _script_s26a11_interact            script_s26a11_interact
     00156B10  _script_s26a12_interact            script_s26a12_interact
     00156BE5  _script_s26a13_interact            script_s26a13_interact
     00156CBA  _script_s26a15_interact            script_s26a15_interact
     00156D94  _script_s26a16_interact            script_s26a16_interact
     00156E69  _script_s26a17_interact            script_s26a17_interact
     00156F3E  _script_s26a18_interact            script_s26a18_interact
     00157018  _script_s26a19_interact            script_s26a19_interact
     001570F2  _script_s26a4_interact             script_s26a4_interact
     001571C7  _script_s26a6_interact             script_s26a6_interact
     0015729C  _script_s26a8_interact             script_s26a8_interact
     00157371  _script_s26a9_interact             script_s26a9_interact
     00157446  _script_s30a10_interact            script_s30a10_interact
     00157520  _script_s30a11_interact            script_s30a11_interact
     001575F5  _script_s30a14_interact            script_s30a14_interact
     001576CF  _script_s30a15_interact            script_s30a15_interact
     001577A4  _script_s30a4_interact             script_s30a4_interact
     0015787E  _script_s30a5_interact             script_s30a5_interact
     00157953  _script_s30a8_interact             script_s30a8_interact
     00157A28  _script_s32a14_interact            script_s32a14_interact
     00157B02  _script_s34a11_interact            script_s34a11_interact
     00157BD7  _script_s34a16_interact            script_s34a16_interact
     00157CAC  _script_s8a11_interact             script_s8a11_interact
     00157D81  _script_s8a13_interact             script_s8a13_interact
     00157E56  _script_s8a16_interact             script_s8a16_interact
     00157F2B  _script_s8a17_interact             script_s8a17_interact
ASxxxx Linker V03.00 + NoICE + sdld,  page 113.
Hexadecimal  [32-Bits]

Area                                    Addr        Size        Decimal Bytes (Attributes)
--------------------------------        ----        ----        ------- ----- ------------
_CODE_15                            000F4000    00004000 =       16384. bytes (REL,CON)

      Value  Global                              Global Defined In Module
      -----  --------------------------------   ------------------------
     000F4000  ___func_scene_44_sprites           scene_44_sprites
     000F4000  _scene_44_sprites                  scene_44_sprites
     000F4006  ___func_scene_45_collisions        scene_45_collisions
     000F4006  _scene_45_collisions               scene_45_collisions
     000F4876  ___func_tilemap_5                  tilemap_5
     000F4876  _tilemap_5                         tilemap_5
     000F50E6  ___func_tileset_12                 tileset_12
     000F50E6  _tileset_12                        tileset_12
     000F5958  ___func_tileset_13                 tileset_13
     000F5958  _tileset_13                        tileset_13
     000F632A  ___func_tileset_17                 tileset_17
     000F632A  _tileset_17                        tileset_17
     000F6C6C  ___func_tileset_32                 tileset_32
     000F6C6C  _tileset_32                        tileset_32
     000F6DAE  ___func_tileset_6                  tileset_6
     000F6DAE  _tileset_6                         tileset_6
     000F7710  _miau                              miau

ASxxxx Linker V03.00 + NoICE + sdld,  page 114.
Hexadecimal  [32-Bits]

Area                                    Addr        Size        Decimal Bytes (Attributes)
--------------------------------        ----        ----        ------- ----- ------------
_CODE_10                            000A4000    00003FFF =       16383. bytes (REL,CON)

      Value  Global                              Global Defined In Module
      -----  --------------------------------   ------------------------
     000A4000  _script_engine_init                
     000A4048  _script_input_14                   script_input_14
     000A421F  ___func_tilemap_36                 tilemap_36
     000A421F  _tilemap_36                        tilemap_36
     000A5197  ___func_tilemap_37                 tilemap_37
     000A5197  _tilemap_37                        tilemap_37
     000A610F  ___func_tilemap_38                 tilemap_38
     000A610F  _tilemap_38                        tilemap_38
     000A7087  ___func_tilemap_39                 tilemap_39
     000A7087  _tilemap_39                        tilemap_39

ASxxxx Linker V03.00 + NoICE + sdld,  page 115.
Hexadecimal  [32-Bits]

Area                                    Addr        Size        Decimal Bytes (Attributes)
--------------------------------        ----        ----        ------- ----- ------------
_CODE_8                             00084000    00004000 =       16384. bytes (REL,CON)

      Value  Global                              Global Defined In Module
      -----  --------------------------------   ------------------------
     00084000  _script_input_11                   script_input_11
     000841D7  ___func_spritesheet_49             spritesheet_49
     000841D7  _spritesheet_49_metasprite_0       spritesheet_49
     000841E7  _spritesheet_49_metasprite_1       spritesheet_49
     000841F7  _spritesheet_49_metasprites        spritesheet_49
     000841FB  _spritesheet_49_animations         spritesheet_49
     0008420B  _spritesheet_49_animations_looku   spritesheet_49
     0008420D  _spritesheet_49                    spritesheet_49
     00084220  ___func_tilemap_28                 tilemap_28
     00084220  _tilemap_28                        tilemap_28
     00085198  ___func_tilemap_29                 tilemap_29
     00085198  _tilemap_29                        tilemap_29
     00086110  ___func_tilemap_30                 tilemap_30
     00086110  _tilemap_30                        tilemap_30
     00087088  ___func_tilemap_31                 tilemap_31
     00087088  _tilemap_31                        tilemap_31

ASxxxx Linker V03.00 + NoICE + sdld,  page 116.
Hexadecimal  [32-Bits]

Area                                    Addr        Size        Decimal Bytes (Attributes)
--------------------------------        ----        ----        ------- ----- ------------
_CODE_9                             00094000    00004000 =       16384. bytes (REL,CON)

      Value  Global                              Global Defined In Module
      -----  --------------------------------   ------------------------
     00094000  _script_input_13                   script_input_13
     000941D7  ___func_spritesheet_59             spritesheet_59
     000941D7  _spritesheet_59_metasprite_0       spritesheet_59
     000941E7  _spritesheet_59_metasprite_1       spritesheet_59
     000941F7  _spritesheet_59_metasprites        spritesheet_59
     000941FB  _spritesheet_59_animations         spritesheet_59
     0009420B  _spritesheet_59_animations_looku   spritesheet_59
     0009420D  _spritesheet_59                    spritesheet_59
     00094220  ___func_tilemap_32                 tilemap_32
     00094220  _tilemap_32                        tilemap_32
     00095198  ___func_tilemap_33                 tilemap_33
     00095198  _tilemap_33                        tilemap_33
     00096110  ___func_tilemap_34                 tilemap_34
     00096110  _tilemap_34                        tilemap_34
     00097088  ___func_tilemap_35                 tilemap_35
     00097088  _tilemap_35                        tilemap_35

ASxxxx Linker V03.00 + NoICE + sdld,  page 117.
Hexadecimal  [32-Bits]

Area                                    Addr        Size        Decimal Bytes (Attributes)
--------------------------------        ----        ----        ------- ----- ------------
_CODE_11                            000B4000    00003FFF =       16383. bytes (REL,CON)

      Value  Global                              Global Defined In Module
      -----  --------------------------------   ------------------------
     000B4000  _script_input_3                    script_input_3
     000B41D7  _script_s10a11_update              script_s10a11_update
     000B421F  ___func_tilemap_attr_14            tilemap_attr_14
     000B421F  _tilemap_attr_14                   tilemap_attr_14
     000B5197  ___func_tilemap_attr_15            tilemap_attr_15
     000B5197  _tilemap_attr_15                   tilemap_attr_15
     000B610F  ___func_tilemap_attr_16            tilemap_attr_16
     000B610F  _tilemap_attr_16                   tilemap_attr_16
     000B7087  ___func_tilemap_attr_17            tilemap_attr_17
     000B7087  _tilemap_attr_17                   tilemap_attr_17

ASxxxx Linker V03.00 + NoICE + sdld,  page 118.
Hexadecimal  [32-Bits]

Area                                    Addr        Size        Decimal Bytes (Attributes)
--------------------------------        ----        ----        ------- ----- ------------
_CODE_12                            000C4000    00003FFF =       16383. bytes (REL,CON)

      Value  Global                              Global Defined In Module
      -----  --------------------------------   ------------------------
     000C4000  _script_input_5                    script_input_5
     000C41D7  _script_s10a13_update              script_s10a13_update
     000C421F  ___func_tilemap_attr_18            tilemap_attr_18
     000C421F  _tilemap_attr_18                   tilemap_attr_18
     000C5197  ___func_tilemap_attr_19            tilemap_attr_19
     000C5197  _tilemap_attr_19                   tilemap_attr_19
     000C610F  ___func_tilemap_attr_20            tilemap_attr_20
     000C610F  _tilemap_attr_20                   tilemap_attr_20
     000C7087  ___func_tilemap_attr_21            tilemap_attr_21
     000C7087  _tilemap_attr_21                   tilemap_attr_21

ASxxxx Linker V03.00 + NoICE + sdld,  page 119.
Hexadecimal  [32-Bits]

Area                                    Addr        Size        Decimal Bytes (Attributes)
--------------------------------        ----        ----        ------- ----- ------------
_CODE_14                            000E4000    00003FFE =       16382. bytes (REL,CON)

      Value  Global                              Global Defined In Module
      -----  --------------------------------   ------------------------
     000E4000  ___func_tileset_10                 tileset_10
     000E4000  _tileset_10                        tileset_10
     000E4C02  ___func_tileset_11                 tileset_11
     000E4C02  _tileset_11                        tileset_11
     000E5604  ___func_tileset_35                 tileset_35
     000E5604  _tileset_35                        tileset_35
     000E56A6  ___func_tileset_4                  tileset_4
     000E56A6  _tileset_4                         tileset_4
     000E62A8  ___func_tileset_7                  tileset_7
     000E62A8  _tileset_7                         tileset_7
     000E6CAA  ___func_tileset_8                  tileset_8
     000E6CAA  _tileset_8                         tileset_8
     000E742C  ___func_tileset_9                  tileset_9
     000E742C  _tileset_9                         tileset_9

ASxxxx Linker V03.00 + NoICE + sdld,  page 120.
Hexadecimal  [32-Bits]

Area                                    Addr        Size        Decimal Bytes (Attributes)
--------------------------------        ----        ----        ------- ----- ------------
_CODE_3                             00034000    00002ADB =       10971. bytes (REL,CON)

      Value  Global                              Global Defined In Module
      -----  --------------------------------   ------------------------
     00034000  _adventure_init                    adventure
     00034015  _adventure_update                  adventure
     0003475D  _logo_init                         logo
     0003476D  _logo_update                       logo
     0003476E  _platform_init                     platform
     00034925  _platform_update                   platform
     00035956  _pointnclick_init                  pointnclick
     0003598F  _pointnclick_update                pointnclick
     00035C9B  _shmup_init                        shmup
     00035D37  _shmup_update                      shmup
     000363CD  _topdown_init                      topdown
     00036464  _topdown_update                    topdown
ASxxxx Linker V03.00 + NoICE + sdld,  page 121.
Hexadecimal  [32-Bits]

Area                                    Addr        Size        Decimal Bytes (Attributes)
--------------------------------        ----        ----        ------- ----- ------------
_HEADER_LCD0                        00000000    00000003 =           3. bytes (ABS,CON)

      Value  Global                              Global Defined In Module
      -----  --------------------------------   ------------------------
ASxxxx Linker V03.00 + NoICE + sdld,  page 122.

Files Linked                              [ module(s) ]

C:\Users\luisc\AppData\Local\Temp/_gbstools/gbdk/lib/small/asxxxx/gb/crt0.o
                                          [ Runtime ]
C:/Users/luisc/AppData/Local/Temp/_gbsbuild/obj/absolute.rel
                                          [ absolute ]
C:/Users/luisc/AppData/Local/Temp/_gbsbuild/obj/actor.rel
                                          [ actor ]
C:/Users/luisc/AppData/Local/Temp/_gbsbuild/obj/bankdata.rel
                                          [ bankdata ]
C:/Users/luisc/AppData/Local/Temp/_gbsbuild/obj/bootstrap.rel
                                          [  ]
C:/Users/luisc/AppData/Local/Temp/_gbsbuild/obj/camera.rel
                                          [ camera ]
C:/Users/luisc/AppData/Local/Temp/_gbsbuild/obj/core.rel
                                          [ core ]
C:/Users/luisc/AppData/Local/Temp/_gbsbuild/obj/crash_handler.rel
                                          [  ]
C:/Users/luisc/AppData/Local/Temp/_gbsbuild/obj/data_manager.rel
                                          [ data_manager ]
C:/Users/luisc/AppData/Local/Temp/_gbsbuild/obj/events.rel
                                          [ events ]
C:/Users/luisc/AppData/Local/Temp/_gbsbuild/obj/fade_manager.rel
                                          [ fade_manager ]
C:/Users/luisc/AppData/Local/Temp/_gbsbuild/obj/flasher_s.rel
                                          [  ]
C:/Users/luisc/AppData/Local/Temp/_gbsbuild/obj/flasher.rel
                                          [ flasher ]
C:/Users/luisc/AppData/Local/Temp/_gbsbuild/obj/game_time.rel
                                          [ game_time ]
C:/Users/luisc/AppData/Local/Temp/_gbsbuild/obj/input.rel
                                          [ input ]
C:/Users/luisc/AppData/Local/Temp/_gbsbuild/obj/interrupt_sio.rel
                                          [  ]
C:/Users/luisc/AppData/Local/Temp/_gbsbuild/obj/interrupt_timer.rel
                                          [  ]
C:/Users/luisc/AppData/Local/Temp/_gbsbuild/obj/interrupts.rel
                                          [ interrupts ]
C:/Users/luisc/AppData/Local/Temp/_gbsbuild/obj/load_save.rel
                                          [ load_save ]
C:/Users/luisc/AppData/Local/Temp/_gbsbuild/obj/math.rel
                                          [ math ]
C:/Users/luisc/AppData/Local/Temp/_gbsbuild/obj/music_manager.rel
                                          [ music_manager ]
C:/Users/luisc/AppData/Local/Temp/_gbsbuild/obj/oam_utils.rel
                                          [ OAM_utils ]
C:/Users/luisc/AppData/Local/Temp/_gbsbuild/obj/palette.rel
                                          [ palette ]
C:/Users/luisc/AppData/Local/Temp/_gbsbuild/obj/parallax.rel
                                          [ parallax ]
C:/Users/luisc/AppData/Local/Temp/_gbsbuild/obj/projectiles.rel
                                          [ projectiles ]
C:/Users/luisc/AppData/Local/Temp/_gbsbuild/obj/sample_player.rel
                                          [ sample_player ]
C:/Users/luisc/AppData/Local/Temp/_gbsbuild/obj/scroll_a.rel
                                          [  ]
C:/Users/luisc/AppData/Local/Temp/_gbsbuild/obj/scroll.rel
                                          [ scroll ]
C:/Users/luisc/AppData/Local/Temp/_gbsbuild/obj/set_tile_submap.rel
                                          [  ]
C:/Users/luisc/AppData/Local/Temp/_gbsbuild/obj/sgb_border.rel
                                          [ sgb_border ]
C:/Users/luisc/AppData/Local/Temp/_gbsbuild/obj/sio.rel
                                          [ sio ]
C:/Users/luisc/AppData/Local/Temp/_gbsbuild/obj/states_caller.rel
                                          [  ]
C:/Users/luisc/AppData/Local/Temp/_gbsbuild/obj/system.rel
                                          [ system ]
C:/Users/luisc/AppData/Local/Temp/_gbsbuild/obj/trigger.rel
                                          [ trigger ]
C:/Users/luisc/AppData/Local/Temp/_gbsbuild/obj/ui_a.rel
                                          [  ]
C:/Users/luisc/AppData/Local/Temp/_gbsbuild/obj/ui.rel
                                          [ ui ]
C:/Users/luisc/AppData/Local/Temp/_gbsbuild/obj/vm_actor.rel
                                          [ vm_actor ]
C:/Users/luisc/AppData/Local/Temp/_gbsbuild/obj/vm_camera.rel
                                          [ vm_camera ]
C:/Users/luisc/AppData/Local/Temp/_gbsbuild/obj/vm_gameboy.rel
                                          [ vm_gameboy ]
C:/Users/luisc/AppData/Local/Temp/_gbsbuild/obj/vm_instructions.rel
                                          [ vm_instructions ]
C:/Users/luisc/AppData/Local/Temp/_gbsbuild/obj/vm_load_save.rel
                                          [ vm_load_save ]
C:/Users/luisc/AppData/Local/Temp/_gbsbuild/obj/vm_math.rel
                                          [ vm_math ]
C:/Users/luisc/AppData/Local/Temp/_gbsbuild/obj/vm_music.rel
                                          [ vm_music ]
C:/Users/luisc/AppData/Local/Temp/_gbsbuild/obj/vm_palette.rel
                                          [ vm_palette ]
C:/Users/luisc/AppData/Local/Temp/_gbsbuild/obj/vm_projectiles.rel
                                          [ vm_projectiles ]
C:/Users/luisc/AppData/Local/Temp/_gbsbuild/obj/vm_rtc.rel
                                          [ vm_rtc ]
C:/Users/luisc/AppData/Local/Temp/_gbsbuild/obj/vm_scene.rel
                                          [ vm_scene ]
C:/Users/luisc/AppData/Local/Temp/_gbsbuild/obj/vm_sgb.rel
                                          [ vm_sgb ]
C:/Users/luisc/AppData/Local/Temp/_gbsbuild/obj/vm_sio.rel
                                          [ vm_sio ]
C:/Users/luisc/AppData/Local/Temp/_gbsbuild/obj/vm_ui_a.rel
                                          [ vm_ui_a ]
C:/Users/luisc/AppData/Local/Temp/_gbsbuild/obj/vm_ui.rel
                                          [ vm_ui ]
C:/Users/luisc/AppData/Local/Temp/_gbsbuild/obj/vm.rel
                                          [ vm ]
C:/Users/luisc/AppData/Local/Temp/_gbsbuild/obj/background_0.rel
                                          [ background_0 ]
C:/Users/luisc/AppData/Local/Temp/_gbsbuild/obj/background_1.rel
                                          [ background_1 ]
C:/Users/luisc/AppData/Local/Temp/_gbsbuild/obj/background_10.rel
                                          [ background_10 ]
C:/Users/luisc/AppData/Local/Temp/_gbsbuild/obj/background_11.rel
                                          [ background_11 ]
C:/Users/luisc/AppData/Local/Temp/_gbsbuild/obj/background_12.rel
                                          [ background_12 ]
C:/Users/luisc/AppData/Local/Temp/_gbsbuild/obj/background_13.rel
                                          [ background_13 ]
C:/Users/luisc/AppData/Local/Temp/_gbsbuild/obj/background_14.rel
                                          [ background_14 ]
C:/Users/luisc/AppData/Local/Temp/_gbsbuild/obj/background_15.rel
                                          [ background_15 ]
C:/Users/luisc/AppData/Local/Temp/_gbsbuild/obj/background_16.rel
                                          [ background_16 ]
C:/Users/luisc/AppData/Local/Temp/_gbsbuild/obj/background_17.rel
                                          [ background_17 ]
C:/Users/luisc/AppData/Local/Temp/_gbsbuild/obj/background_18.rel
                                          [ background_18 ]
C:/Users/luisc/AppData/Local/Temp/_gbsbuild/obj/background_19.rel
                                          [ background_19 ]
C:/Users/luisc/AppData/Local/Temp/_gbsbuild/obj/background_2.rel
                                          [ background_2 ]
C:/Users/luisc/AppData/Local/Temp/_gbsbuild/obj/background_20.rel
                                          [ background_20 ]
C:/Users/luisc/AppData/Local/Temp/_gbsbuild/obj/background_21.rel
                                          [ background_21 ]
C:/Users/luisc/AppData/Local/Temp/_gbsbuild/obj/background_22.rel
                                          [ background_22 ]
C:/Users/luisc/AppData/Local/Temp/_gbsbuild/obj/background_23.rel
                                          [ background_23 ]
C:/Users/luisc/AppData/Local/Temp/_gbsbuild/obj/background_24.rel
                                          [ background_24 ]
C:/Users/luisc/AppData/Local/Temp/_gbsbuild/obj/background_25.rel
                                          [ background_25 ]
C:/Users/luisc/AppData/Local/Temp/_gbsbuild/obj/background_26.rel
                                          [ background_26 ]
C:/Users/luisc/AppData/Local/Temp/_gbsbuild/obj/background_27.rel
                                          [ background_27 ]
C:/Users/luisc/AppData/Local/Temp/_gbsbuild/obj/background_28.rel
                                          [ background_28 ]
C:/Users/luisc/AppData/Local/Temp/_gbsbuild/obj/background_29.rel
                                          [ background_29 ]
C:/Users/luisc/AppData/Local/Temp/_gbsbuild/obj/background_3.rel
                                          [ background_3 ]
C:/Users/luisc/AppData/Local/Temp/_gbsbuild/obj/background_30.rel
                                          [ background_30 ]
C:/Users/luisc/AppData/Local/Temp/_gbsbuild/obj/background_31.rel
                                          [ background_31 ]
C:/Users/luisc/AppData/Local/Temp/_gbsbuild/obj/background_32.rel
                                          [ background_32 ]
C:/Users/luisc/AppData/Local/Temp/_gbsbuild/obj/background_33.rel
                                          [ background_33 ]
C:/Users/luisc/AppData/Local/Temp/_gbsbuild/obj/background_34.rel
                                          [ background_34 ]
C:/Users/luisc/AppData/Local/Temp/_gbsbuild/obj/background_35.rel
                                          [ background_35 ]
C:/Users/luisc/AppData/Local/Temp/_gbsbuild/obj/background_36.rel
                                          [ background_36 ]
C:/Users/luisc/AppData/Local/Temp/_gbsbuild/obj/background_37.rel
                                          [ background_37 ]
C:/Users/luisc/AppData/Local/Temp/_gbsbuild/obj/background_38.rel
                                          [ background_38 ]
C:/Users/luisc/AppData/Local/Temp/_gbsbuild/obj/background_39.rel
                                          [ background_39 ]
C:/Users/luisc/AppData/Local/Temp/_gbsbuild/obj/background_4.rel
                                          [ background_4 ]
C:/Users/luisc/AppData/Local/Temp/_gbsbuild/obj/background_40.rel
                                          [ background_40 ]
C:/Users/luisc/AppData/Local/Temp/_gbsbuild/obj/background_41.rel
                                          [ background_41 ]
C:/Users/luisc/AppData/Local/Temp/_gbsbuild/obj/background_42.rel
                                          [ background_42 ]
C:/Users/luisc/AppData/Local/Temp/_gbsbuild/obj/background_43.rel
                                          [ background_43 ]
C:/Users/luisc/AppData/Local/Temp/_gbsbuild/obj/background_5.rel
                                          [ background_5 ]
C:/Users/luisc/AppData/Local/Temp/_gbsbuild/obj/background_6.rel
                                          [ background_6 ]
C:/Users/luisc/AppData/Local/Temp/_gbsbuild/obj/background_7.rel
                                          [ background_7 ]
C:/Users/luisc/AppData/Local/Temp/_gbsbuild/obj/background_8.rel
                                          [ background_8 ]
C:/Users/luisc/AppData/Local/Temp/_gbsbuild/obj/background_9.rel
                                          [ background_9 ]
C:/Users/luisc/AppData/Local/Temp/_gbsbuild/obj/cursor_image.rel
                                          [ cursor_image ]
C:/Users/luisc/AppData/Local/Temp/_gbsbuild/obj/emote_0.rel
                                          [ emote_0 ]
C:/Users/luisc/AppData/Local/Temp/_gbsbuild/obj/font_0.rel
                                          [ font_0 ]
C:/Users/luisc/AppData/Local/Temp/_gbsbuild/obj/frame_image.rel
                                          [ frame_image ]
C:/Users/luisc/AppData/Local/Temp/_gbsbuild/obj/palette_0.rel
                                          [ palette_0 ]
C:/Users/luisc/AppData/Local/Temp/_gbsbuild/obj/palette_1.rel
                                          [ palette_1 ]
C:/Users/luisc/AppData/Local/Temp/_gbsbuild/obj/palette_10.rel
                                          [ palette_10 ]
C:/Users/luisc/AppData/Local/Temp/_gbsbuild/obj/palette_11.rel
                                          [ palette_11 ]
C:/Users/luisc/AppData/Local/Temp/_gbsbuild/obj/palette_12.rel
                                          [ palette_12 ]
C:/Users/luisc/AppData/Local/Temp/_gbsbuild/obj/palette_13.rel
                                          [ palette_13 ]
C:/Users/luisc/AppData/Local/Temp/_gbsbuild/obj/palette_14.rel
                                          [ palette_14 ]
C:/Users/luisc/AppData/Local/Temp/_gbsbuild/obj/palette_15.rel
                                          [ palette_15 ]
C:/Users/luisc/AppData/Local/Temp/_gbsbuild/obj/palette_16.rel
                                          [ palette_16 ]
C:/Users/luisc/AppData/Local/Temp/_gbsbuild/obj/palette_17.rel
                                          [ palette_17 ]
C:/Users/luisc/AppData/Local/Temp/_gbsbuild/obj/palette_18.rel
                                          [ palette_18 ]
C:/Users/luisc/AppData/Local/Temp/_gbsbuild/obj/palette_19.rel
                                          [ palette_19 ]
C:/Users/luisc/AppData/Local/Temp/_gbsbuild/obj/palette_2.rel
                                          [ palette_2 ]
C:/Users/luisc/AppData/Local/Temp/_gbsbuild/obj/palette_20.rel
                                          [ palette_20 ]
C:/Users/luisc/AppData/Local/Temp/_gbsbuild/obj/palette_21.rel
                                          [ palette_21 ]
C:/Users/luisc/AppData/Local/Temp/_gbsbuild/obj/palette_22.rel
                                          [ palette_22 ]
C:/Users/luisc/AppData/Local/Temp/_gbsbuild/obj/palette_23.rel
                                          [ palette_23 ]
C:/Users/luisc/AppData/Local/Temp/_gbsbuild/obj/palette_24.rel
                                          [ palette_24 ]
C:/Users/luisc/AppData/Local/Temp/_gbsbuild/obj/palette_25.rel
                                          [ palette_25 ]
C:/Users/luisc/AppData/Local/Temp/_gbsbuild/obj/palette_26.rel
                                          [ palette_26 ]
C:/Users/luisc/AppData/Local/Temp/_gbsbuild/obj/palette_27.rel
                                          [ palette_27 ]
C:/Users/luisc/AppData/Local/Temp/_gbsbuild/obj/palette_28.rel
                                          [ palette_28 ]
C:/Users/luisc/AppData/Local/Temp/_gbsbuild/obj/palette_29.rel
                                          [ palette_29 ]
C:/Users/luisc/AppData/Local/Temp/_gbsbuild/obj/palette_3.rel
                                          [ palette_3 ]
C:/Users/luisc/AppData/Local/Temp/_gbsbuild/obj/palette_30.rel
                                          [ palette_30 ]
C:/Users/luisc/AppData/Local/Temp/_gbsbuild/obj/palette_31.rel
                                          [ palette_31 ]
C:/Users/luisc/AppData/Local/Temp/_gbsbuild/obj/palette_32.rel
                                          [ palette_32 ]
C:/Users/luisc/AppData/Local/Temp/_gbsbuild/obj/palette_33.rel
                                          [ palette_33 ]
C:/Users/luisc/AppData/Local/Temp/_gbsbuild/obj/palette_34.rel
                                          [ palette_34 ]
C:/Users/luisc/AppData/Local/Temp/_gbsbuild/obj/palette_35.rel
                                          [ palette_35 ]
C:/Users/luisc/AppData/Local/Temp/_gbsbuild/obj/palette_36.rel
                                          [ palette_36 ]
C:/Users/luisc/AppData/Local/Temp/_gbsbuild/obj/palette_37.rel
                                          [ palette_37 ]
C:/Users/luisc/AppData/Local/Temp/_gbsbuild/obj/palette_38.rel
                                          [ palette_38 ]
C:/Users/luisc/AppData/Local/Temp/_gbsbuild/obj/palette_39.rel
                                          [ palette_39 ]
C:/Users/luisc/AppData/Local/Temp/_gbsbuild/obj/palette_4.rel
                                          [ palette_4 ]
C:/Users/luisc/AppData/Local/Temp/_gbsbuild/obj/palette_40.rel
                                          [ palette_40 ]
C:/Users/luisc/AppData/Local/Temp/_gbsbuild/obj/palette_41.rel
                                          [ palette_41 ]
C:/Users/luisc/AppData/Local/Temp/_gbsbuild/obj/palette_42.rel
                                          [ palette_42 ]
C:/Users/luisc/AppData/Local/Temp/_gbsbuild/obj/palette_43.rel
                                          [ palette_43 ]
C:/Users/luisc/AppData/Local/Temp/_gbsbuild/obj/palette_44.rel
                                          [ palette_44 ]
C:/Users/luisc/AppData/Local/Temp/_gbsbuild/obj/palette_5.rel
                                          [ palette_5 ]
C:/Users/luisc/AppData/Local/Temp/_gbsbuild/obj/palette_6.rel
                                          [ palette_6 ]
C:/Users/luisc/AppData/Local/Temp/_gbsbuild/obj/palette_7.rel
                                          [ palette_7 ]
C:/Users/luisc/AppData/Local/Temp/_gbsbuild/obj/palette_8.rel
                                          [ palette_8 ]
C:/Users/luisc/AppData/Local/Temp/_gbsbuild/obj/palette_9.rel
                                          [ palette_9 ]
C:/Users/luisc/AppData/Local/Temp/_gbsbuild/obj/scene_0_collisions.rel
                                          [ scene_0_collisions ]
C:/Users/luisc/AppData/Local/Temp/_gbsbuild/obj/scene_0.rel
                                          [ scene_0 ]
C:/Users/luisc/AppData/Local/Temp/_gbsbuild/obj/scene_1_collisions.rel
                                          [ scene_1_collisions ]
C:/Users/luisc/AppData/Local/Temp/_gbsbuild/obj/scene_1.rel
                                          [ scene_1 ]
C:/Users/luisc/AppData/Local/Temp/_gbsbuild/obj/scene_10_actors.rel
                                          [ scene_10_actors ]
C:/Users/luisc/AppData/Local/Temp/_gbsbuild/obj/scene_10_collisions.rel
                                          [ scene_10_collisions ]
C:/Users/luisc/AppData/Local/Temp/_gbsbuild/obj/scene_10_projectiles.rel
                                          [ scene_10_projectiles ]
C:/Users/luisc/AppData/Local/Temp/_gbsbuild/obj/scene_10_sprites.rel
                                          [ scene_10_sprites ]
C:/Users/luisc/AppData/Local/Temp/_gbsbuild/obj/scene_10_triggers.rel
                                          [ scene_10_triggers ]
C:/Users/luisc/AppData/Local/Temp/_gbsbuild/obj/scene_10.rel
                                          [ scene_10 ]
C:/Users/luisc/AppData/Local/Temp/_gbsbuild/obj/scene_11_collisions.rel
                                          [ scene_11_collisions ]
C:/Users/luisc/AppData/Local/Temp/_gbsbuild/obj/scene_11.rel
                                          [ scene_11 ]
C:/Users/luisc/AppData/Local/Temp/_gbsbuild/obj/scene_12_actors.rel
                                          [ scene_12_actors ]
C:/Users/luisc/AppData/Local/Temp/_gbsbuild/obj/scene_12_collisions.rel
                                          [ scene_12_collisions ]
C:/Users/luisc/AppData/Local/Temp/_gbsbuild/obj/scene_12_projectiles.rel
                                          [ scene_12_projectiles ]
C:/Users/luisc/AppData/Local/Temp/_gbsbuild/obj/scene_12_sprites.rel
                                          [ scene_12_sprites ]
C:/Users/luisc/AppData/Local/Temp/_gbsbuild/obj/scene_12_triggers.rel
                                          [ scene_12_triggers ]
C:/Users/luisc/AppData/Local/Temp/_gbsbuild/obj/scene_12.rel
                                          [ scene_12 ]
C:/Users/luisc/AppData/Local/Temp/_gbsbuild/obj/scene_13_collisions.rel
                                          [ scene_13_collisions ]
C:/Users/luisc/AppData/Local/Temp/_gbsbuild/obj/scene_13.rel
                                          [ scene_13 ]
C:/Users/luisc/AppData/Local/Temp/_gbsbuild/obj/scene_14_actors.rel
                                          [ scene_14_actors ]
C:/Users/luisc/AppData/Local/Temp/_gbsbuild/obj/scene_14_collisions.rel
                                          [ scene_14_collisions ]
C:/Users/luisc/AppData/Local/Temp/_gbsbuild/obj/scene_14_projectiles.rel
                                          [ scene_14_projectiles ]
C:/Users/luisc/AppData/Local/Temp/_gbsbuild/obj/scene_14_sprites.rel
                                          [ scene_14_sprites ]
C:/Users/luisc/AppData/Local/Temp/_gbsbuild/obj/scene_14_triggers.rel
                                          [ scene_14_triggers ]
C:/Users/luisc/AppData/Local/Temp/_gbsbuild/obj/scene_14.rel
                                          [ scene_14 ]
C:/Users/luisc/AppData/Local/Temp/_gbsbuild/obj/scene_15_collisions.rel
                                          [ scene_15_collisions ]
C:/Users/luisc/AppData/Local/Temp/_gbsbuild/obj/scene_15.rel
                                          [ scene_15 ]
C:/Users/luisc/AppData/Local/Temp/_gbsbuild/obj/scene_16_actors.rel
                                          [ scene_16_actors ]
C:/Users/luisc/AppData/Local/Temp/_gbsbuild/obj/scene_16_collisions.rel
                                          [ scene_16_collisions ]
C:/Users/luisc/AppData/Local/Temp/_gbsbuild/obj/scene_16_projectiles.rel
                                          [ scene_16_projectiles ]
C:/Users/luisc/AppData/Local/Temp/_gbsbuild/obj/scene_16_sprites.rel
                                          [ scene_16_sprites ]
C:/Users/luisc/AppData/Local/Temp/_gbsbuild/obj/scene_16_triggers.rel
                                          [ scene_16_triggers ]
C:/Users/luisc/AppData/Local/Temp/_gbsbuild/obj/scene_16.rel
                                          [ scene_16 ]
C:/Users/luisc/AppData/Local/Temp/_gbsbuild/obj/scene_17_collisions.rel
                                          [ scene_17_collisions ]
C:/Users/luisc/AppData/Local/Temp/_gbsbuild/obj/scene_17.rel
                                          [ scene_17 ]
C:/Users/luisc/AppData/Local/Temp/_gbsbuild/obj/scene_18_actors.rel
                                          [ scene_18_actors ]
C:/Users/luisc/AppData/Local/Temp/_gbsbuild/obj/scene_18_collisions.rel
                                          [ scene_18_collisions ]
C:/Users/luisc/AppData/Local/Temp/_gbsbuild/obj/scene_18_projectiles.rel
                                          [ scene_18_projectiles ]
C:/Users/luisc/AppData/Local/Temp/_gbsbuild/obj/scene_18_sprites.rel
                                          [ scene_18_sprites ]
C:/Users/luisc/AppData/Local/Temp/_gbsbuild/obj/scene_18_triggers.rel
                                          [ scene_18_triggers ]
C:/Users/luisc/AppData/Local/Temp/_gbsbuild/obj/scene_18.rel
                                          [ scene_18 ]
C:/Users/luisc/AppData/Local/Temp/_gbsbuild/obj/scene_19_collisions.rel
                                          [ scene_19_collisions ]
C:/Users/luisc/AppData/Local/Temp/_gbsbuild/obj/scene_19.rel
                                          [ scene_19 ]
C:/Users/luisc/AppData/Local/Temp/_gbsbuild/obj/scene_2_actors.rel
                                          [ scene_2_actors ]
C:/Users/luisc/AppData/Local/Temp/_gbsbuild/obj/scene_2_collisions.rel
                                          [ scene_2_collisions ]
C:/Users/luisc/AppData/Local/Temp/_gbsbuild/obj/scene_2_sprites.rel
                                          [ scene_2_sprites ]
C:/Users/luisc/AppData/Local/Temp/_gbsbuild/obj/scene_2.rel
                                          [ scene_2 ]
C:/Users/luisc/AppData/Local/Temp/_gbsbuild/obj/scene_20_actors.rel
                                          [ scene_20_actors ]
C:/Users/luisc/AppData/Local/Temp/_gbsbuild/obj/scene_20_collisions.rel
                                          [ scene_20_collisions ]
C:/Users/luisc/AppData/Local/Temp/_gbsbuild/obj/scene_20_projectiles.rel
                                          [ scene_20_projectiles ]
C:/Users/luisc/AppData/Local/Temp/_gbsbuild/obj/scene_20_sprites.rel
                                          [ scene_20_sprites ]
C:/Users/luisc/AppData/Local/Temp/_gbsbuild/obj/scene_20_triggers.rel
                                          [ scene_20_triggers ]
C:/Users/luisc/AppData/Local/Temp/_gbsbuild/obj/scene_20.rel
                                          [ scene_20 ]
C:/Users/luisc/AppData/Local/Temp/_gbsbuild/obj/scene_21_collisions.rel
                                          [ scene_21_collisions ]
C:/Users/luisc/AppData/Local/Temp/_gbsbuild/obj/scene_21.rel
                                          [ scene_21 ]
C:/Users/luisc/AppData/Local/Temp/_gbsbuild/obj/scene_22_actors.rel
                                          [ scene_22_actors ]
C:/Users/luisc/AppData/Local/Temp/_gbsbuild/obj/scene_22_collisions.rel
                                          [ scene_22_collisions ]
C:/Users/luisc/AppData/Local/Temp/_gbsbuild/obj/scene_22_projectiles.rel
                                          [ scene_22_projectiles ]
C:/Users/luisc/AppData/Local/Temp/_gbsbuild/obj/scene_22_sprites.rel
                                          [ scene_22_sprites ]
C:/Users/luisc/AppData/Local/Temp/_gbsbuild/obj/scene_22_triggers.rel
                                          [ scene_22_triggers ]
C:/Users/luisc/AppData/Local/Temp/_gbsbuild/obj/scene_22.rel
                                          [ scene_22 ]
C:/Users/luisc/AppData/Local/Temp/_gbsbuild/obj/scene_23_collisions.rel
                                          [ scene_23_collisions ]
C:/Users/luisc/AppData/Local/Temp/_gbsbuild/obj/scene_23.rel
                                          [ scene_23 ]
C:/Users/luisc/AppData/Local/Temp/_gbsbuild/obj/scene_24_actors.rel
                                          [ scene_24_actors ]
C:/Users/luisc/AppData/Local/Temp/_gbsbuild/obj/scene_24_collisions.rel
                                          [ scene_24_collisions ]
C:/Users/luisc/AppData/Local/Temp/_gbsbuild/obj/scene_24_projectiles.rel
                                          [ scene_24_projectiles ]
C:/Users/luisc/AppData/Local/Temp/_gbsbuild/obj/scene_24_sprites.rel
                                          [ scene_24_sprites ]
C:/Users/luisc/AppData/Local/Temp/_gbsbuild/obj/scene_24_triggers.rel
                                          [ scene_24_triggers ]
C:/Users/luisc/AppData/Local/Temp/_gbsbuild/obj/scene_24.rel
                                          [ scene_24 ]
C:/Users/luisc/AppData/Local/Temp/_gbsbuild/obj/scene_25_collisions.rel
                                          [ scene_25_collisions ]
C:/Users/luisc/AppData/Local/Temp/_gbsbuild/obj/scene_25.rel
                                          [ scene_25 ]
C:/Users/luisc/AppData/Local/Temp/_gbsbuild/obj/scene_26_actors.rel
                                          [ scene_26_actors ]
C:/Users/luisc/AppData/Local/Temp/_gbsbuild/obj/scene_26_collisions.rel
                                          [ scene_26_collisions ]
C:/Users/luisc/AppData/Local/Temp/_gbsbuild/obj/scene_26_projectiles.rel
                                          [ scene_26_projectiles ]
C:/Users/luisc/AppData/Local/Temp/_gbsbuild/obj/scene_26_sprites.rel
                                          [ scene_26_sprites ]
C:/Users/luisc/AppData/Local/Temp/_gbsbuild/obj/scene_26_triggers.rel
                                          [ scene_26_triggers ]
C:/Users/luisc/AppData/Local/Temp/_gbsbuild/obj/scene_26.rel
                                          [ scene_26 ]
C:/Users/luisc/AppData/Local/Temp/_gbsbuild/obj/scene_27_collisions.rel
                                          [ scene_27_collisions ]
C:/Users/luisc/AppData/Local/Temp/_gbsbuild/obj/scene_27.rel
                                          [ scene_27 ]
C:/Users/luisc/AppData/Local/Temp/_gbsbuild/obj/scene_28_actors.rel
                                          [ scene_28_actors ]
C:/Users/luisc/AppData/Local/Temp/_gbsbuild/obj/scene_28_collisions.rel
                                          [ scene_28_collisions ]
C:/Users/luisc/AppData/Local/Temp/_gbsbuild/obj/scene_28_projectiles.rel
                                          [ scene_28_projectiles ]
C:/Users/luisc/AppData/Local/Temp/_gbsbuild/obj/scene_28_sprites.rel
                                          [ scene_28_sprites ]
C:/Users/luisc/AppData/Local/Temp/_gbsbuild/obj/scene_28_triggers.rel
                                          [ scene_28_triggers ]
C:/Users/luisc/AppData/Local/Temp/_gbsbuild/obj/scene_28.rel
                                          [ scene_28 ]
C:/Users/luisc/AppData/Local/Temp/_gbsbuild/obj/scene_29_collisions.rel
                                          [ scene_29_collisions ]
C:/Users/luisc/AppData/Local/Temp/_gbsbuild/obj/scene_29.rel
                                          [ scene_29 ]
C:/Users/luisc/AppData/Local/Temp/_gbsbuild/obj/scene_3_actors.rel
                                          [ scene_3_actors ]
C:/Users/luisc/AppData/Local/Temp/_gbsbuild/obj/scene_3_collisions.rel
                                          [ scene_3_collisions ]
C:/Users/luisc/AppData/Local/Temp/_gbsbuild/obj/scene_3_sprites.rel
                                          [ scene_3_sprites ]
C:/Users/luisc/AppData/Local/Temp/_gbsbuild/obj/scene_3.rel
                                          [ scene_3 ]
C:/Users/luisc/AppData/Local/Temp/_gbsbuild/obj/scene_30_actors.rel
                                          [ scene_30_actors ]
C:/Users/luisc/AppData/Local/Temp/_gbsbuild/obj/scene_30_collisions.rel
                                          [ scene_30_collisions ]
C:/Users/luisc/AppData/Local/Temp/_gbsbuild/obj/scene_30_projectiles.rel
                                          [ scene_30_projectiles ]
C:/Users/luisc/AppData/Local/Temp/_gbsbuild/obj/scene_30_sprites.rel
                                          [ scene_30_sprites ]
C:/Users/luisc/AppData/Local/Temp/_gbsbuild/obj/scene_30_triggers.rel
                                          [ scene_30_triggers ]
C:/Users/luisc/AppData/Local/Temp/_gbsbuild/obj/scene_30.rel
                                          [ scene_30 ]
C:/Users/luisc/AppData/Local/Temp/_gbsbuild/obj/scene_31_collisions.rel
                                          [ scene_31_collisions ]
C:/Users/luisc/AppData/Local/Temp/_gbsbuild/obj/scene_31.rel
                                          [ scene_31 ]
C:/Users/luisc/AppData/Local/Temp/_gbsbuild/obj/scene_32_actors.rel
                                          [ scene_32_actors ]
C:/Users/luisc/AppData/Local/Temp/_gbsbuild/obj/scene_32_collisions.rel
                                          [ scene_32_collisions ]
C:/Users/luisc/AppData/Local/Temp/_gbsbuild/obj/scene_32_projectiles.rel
                                          [ scene_32_projectiles ]
C:/Users/luisc/AppData/Local/Temp/_gbsbuild/obj/scene_32_sprites.rel
                                          [ scene_32_sprites ]
C:/Users/luisc/AppData/Local/Temp/_gbsbuild/obj/scene_32_triggers.rel
                                          [ scene_32_triggers ]
C:/Users/luisc/AppData/Local/Temp/_gbsbuild/obj/scene_32.rel
                                          [ scene_32 ]
C:/Users/luisc/AppData/Local/Temp/_gbsbuild/obj/scene_33_collisions.rel
                                          [ scene_33_collisions ]
C:/Users/luisc/AppData/Local/Temp/_gbsbuild/obj/scene_33.rel
                                          [ scene_33 ]
C:/Users/luisc/AppData/Local/Temp/_gbsbuild/obj/scene_34_actors.rel
                                          [ scene_34_actors ]
C:/Users/luisc/AppData/Local/Temp/_gbsbuild/obj/scene_34_collisions.rel
                                          [ scene_34_collisions ]
C:/Users/luisc/AppData/Local/Temp/_gbsbuild/obj/scene_34_projectiles.rel
                                          [ scene_34_projectiles ]
C:/Users/luisc/AppData/Local/Temp/_gbsbuild/obj/scene_34_sprites.rel
                                          [ scene_34_sprites ]
C:/Users/luisc/AppData/Local/Temp/_gbsbuild/obj/scene_34_triggers.rel
                                          [ scene_34_triggers ]
C:/Users/luisc/AppData/Local/Temp/_gbsbuild/obj/scene_34.rel
                                          [ scene_34 ]
C:/Users/luisc/AppData/Local/Temp/_gbsbuild/obj/scene_35_collisions.rel
                                          [ scene_35_collisions ]
C:/Users/luisc/AppData/Local/Temp/_gbsbuild/obj/scene_35.rel
                                          [ scene_35 ]
C:/Users/luisc/AppData/Local/Temp/_gbsbuild/obj/scene_36_actors.rel
                                          [ scene_36_actors ]
C:/Users/luisc/AppData/Local/Temp/_gbsbuild/obj/scene_36_collisions.rel
                                          [ scene_36_collisions ]
C:/Users/luisc/AppData/Local/Temp/_gbsbuild/obj/scene_36_projectiles.rel
                                          [ scene_36_projectiles ]
C:/Users/luisc/AppData/Local/Temp/_gbsbuild/obj/scene_36_sprites.rel
                                          [ scene_36_sprites ]
C:/Users/luisc/AppData/Local/Temp/_gbsbuild/obj/scene_36_triggers.rel
                                          [ scene_36_triggers ]
C:/Users/luisc/AppData/Local/Temp/_gbsbuild/obj/scene_36.rel
                                          [ scene_36 ]
C:/Users/luisc/AppData/Local/Temp/_gbsbuild/obj/scene_37_collisions.rel
                                          [ scene_37_collisions ]
C:/Users/luisc/AppData/Local/Temp/_gbsbuild/obj/scene_37.rel
                                          [ scene_37 ]
C:/Users/luisc/AppData/Local/Temp/_gbsbuild/obj/scene_38_collisions.rel
                                          [ scene_38_collisions ]
C:/Users/luisc/AppData/Local/Temp/_gbsbuild/obj/scene_38.rel
                                          [ scene_38 ]
C:/Users/luisc/AppData/Local/Temp/_gbsbuild/obj/scene_39_actors.rel
                                          [ scene_39_actors ]
C:/Users/luisc/AppData/Local/Temp/_gbsbuild/obj/scene_39_collisions.rel
                                          [ scene_39_collisions ]
C:/Users/luisc/AppData/Local/Temp/_gbsbuild/obj/scene_39_sprites.rel
                                          [ scene_39_sprites ]
C:/Users/luisc/AppData/Local/Temp/_gbsbuild/obj/scene_39.rel
                                          [ scene_39 ]
C:/Users/luisc/AppData/Local/Temp/_gbsbuild/obj/scene_4_collisions.rel
                                          [ scene_4_collisions ]
C:/Users/luisc/AppData/Local/Temp/_gbsbuild/obj/scene_4.rel
                                          [ scene_4 ]
C:/Users/luisc/AppData/Local/Temp/_gbsbuild/obj/scene_40_actors.rel
                                          [ scene_40_actors ]
C:/Users/luisc/AppData/Local/Temp/_gbsbuild/obj/scene_40_collisions.rel
                                          [ scene_40_collisions ]
C:/Users/luisc/AppData/Local/Temp/_gbsbuild/obj/scene_40_sprites.rel
                                          [ scene_40_sprites ]
C:/Users/luisc/AppData/Local/Temp/_gbsbuild/obj/scene_40.rel
                                          [ scene_40 ]
C:/Users/luisc/AppData/Local/Temp/_gbsbuild/obj/scene_41_actors.rel
                                          [ scene_41_actors ]
C:/Users/luisc/AppData/Local/Temp/_gbsbuild/obj/scene_41_collisions.rel
                                          [ scene_41_collisions ]
C:/Users/luisc/AppData/Local/Temp/_gbsbuild/obj/scene_41_sprites.rel
                                          [ scene_41_sprites ]
C:/Users/luisc/AppData/Local/Temp/_gbsbuild/obj/scene_41.rel
                                          [ scene_41 ]
C:/Users/luisc/AppData/Local/Temp/_gbsbuild/obj/scene_42_actors.rel
                                          [ scene_42_actors ]
C:/Users/luisc/AppData/Local/Temp/_gbsbuild/obj/scene_42_collisions.rel
                                          [ scene_42_collisions ]
C:/Users/luisc/AppData/Local/Temp/_gbsbuild/obj/scene_42_sprites.rel
                                          [ scene_42_sprites ]
C:/Users/luisc/AppData/Local/Temp/_gbsbuild/obj/scene_42.rel
                                          [ scene_42 ]
C:/Users/luisc/AppData/Local/Temp/_gbsbuild/obj/scene_43_actors.rel
                                          [ scene_43_actors ]
C:/Users/luisc/AppData/Local/Temp/_gbsbuild/obj/scene_43_collisions.rel
                                          [ scene_43_collisions ]
C:/Users/luisc/AppData/Local/Temp/_gbsbuild/obj/scene_43_sprites.rel
                                          [ scene_43_sprites ]
C:/Users/luisc/AppData/Local/Temp/_gbsbuild/obj/scene_43.rel
                                          [ scene_43 ]
C:/Users/luisc/AppData/Local/Temp/_gbsbuild/obj/scene_44_actors.rel
                                          [ scene_44_actors ]
C:/Users/luisc/AppData/Local/Temp/_gbsbuild/obj/scene_44_collisions.rel
                                          [ scene_44_collisions ]
C:/Users/luisc/AppData/Local/Temp/_gbsbuild/obj/scene_44_sprites.rel
                                          [ scene_44_sprites ]
C:/Users/luisc/AppData/Local/Temp/_gbsbuild/obj/scene_44.rel
                                          [ scene_44 ]
C:/Users/luisc/AppData/Local/Temp/_gbsbuild/obj/scene_45_actors.rel
                                          [ scene_45_actors ]
C:/Users/luisc/AppData/Local/Temp/_gbsbuild/obj/scene_45_collisions.rel
                                          [ scene_45_collisions ]
C:/Users/luisc/AppData/Local/Temp/_gbsbuild/obj/scene_45_sprites.rel
                                          [ scene_45_sprites ]
C:/Users/luisc/AppData/Local/Temp/_gbsbuild/obj/scene_45.rel
                                          [ scene_45 ]
C:/Users/luisc/AppData/Local/Temp/_gbsbuild/obj/scene_5_collisions.rel
                                          [ scene_5_collisions ]
C:/Users/luisc/AppData/Local/Temp/_gbsbuild/obj/scene_5.rel
                                          [ scene_5 ]
C:/Users/luisc/AppData/Local/Temp/_gbsbuild/obj/scene_6_actors.rel
                                          [ scene_6_actors ]
C:/Users/luisc/AppData/Local/Temp/_gbsbuild/obj/scene_6_collisions.rel
                                          [ scene_6_collisions ]
C:/Users/luisc/AppData/Local/Temp/_gbsbuild/obj/scene_6_sprites.rel
                                          [ scene_6_sprites ]
C:/Users/luisc/AppData/Local/Temp/_gbsbuild/obj/scene_6.rel
                                          [ scene_6 ]
C:/Users/luisc/AppData/Local/Temp/_gbsbuild/obj/scene_7_collisions.rel
                                          [ scene_7_collisions ]
C:/Users/luisc/AppData/Local/Temp/_gbsbuild/obj/scene_7.rel
                                          [ scene_7 ]
C:/Users/luisc/AppData/Local/Temp/_gbsbuild/obj/scene_8_actors.rel
                                          [ scene_8_actors ]
C:/Users/luisc/AppData/Local/Temp/_gbsbuild/obj/scene_8_collisions.rel
                                          [ scene_8_collisions ]
C:/Users/luisc/AppData/Local/Temp/_gbsbuild/obj/scene_8_projectiles.rel
                                          [ scene_8_projectiles ]
C:/Users/luisc/AppData/Local/Temp/_gbsbuild/obj/scene_8_sprites.rel
                                          [ scene_8_sprites ]
C:/Users/luisc/AppData/Local/Temp/_gbsbuild/obj/scene_8_triggers.rel
                                          [ scene_8_triggers ]
C:/Users/luisc/AppData/Local/Temp/_gbsbuild/obj/scene_8.rel
                                          [ scene_8 ]
C:/Users/luisc/AppData/Local/Temp/_gbsbuild/obj/scene_9_collisions.rel
                                          [ scene_9_collisions ]
C:/Users/luisc/AppData/Local/Temp/_gbsbuild/obj/scene_9.rel
                                          [ scene_9 ]
C:/Users/luisc/AppData/Local/Temp/_gbsbuild/obj/script_engine_init.rel
                                          [  ]
C:/Users/luisc/AppData/Local/Temp/_gbsbuild/obj/script_input_0.rel
                                          [ script_input_0 ]
C:/Users/luisc/AppData/Local/Temp/_gbsbuild/obj/script_input_1.rel
                                          [ script_input_1 ]
C:/Users/luisc/AppData/Local/Temp/_gbsbuild/obj/script_input_10.rel
                                          [ script_input_10 ]
C:/Users/luisc/AppData/Local/Temp/_gbsbuild/obj/script_input_11.rel
                                          [ script_input_11 ]
C:/Users/luisc/AppData/Local/Temp/_gbsbuild/obj/script_input_12.rel
                                          [ script_input_12 ]
C:/Users/luisc/AppData/Local/Temp/_gbsbuild/obj/script_input_13.rel
                                          [ script_input_13 ]
C:/Users/luisc/AppData/Local/Temp/_gbsbuild/obj/script_input_14.rel
                                          [ script_input_14 ]
C:/Users/luisc/AppData/Local/Temp/_gbsbuild/obj/script_input_15.rel
                                          [ script_input_15 ]
C:/Users/luisc/AppData/Local/Temp/_gbsbuild/obj/script_input_16.rel
                                          [ script_input_16 ]
C:/Users/luisc/AppData/Local/Temp/_gbsbuild/obj/script_input_17.rel
                                          [ script_input_17 ]
C:/Users/luisc/AppData/Local/Temp/_gbsbuild/obj/script_input_2.rel
                                          [ script_input_2 ]
C:/Users/luisc/AppData/Local/Temp/_gbsbuild/obj/script_input_3.rel
                                          [ script_input_3 ]
C:/Users/luisc/AppData/Local/Temp/_gbsbuild/obj/script_input_4.rel
                                          [ script_input_4 ]
C:/Users/luisc/AppData/Local/Temp/_gbsbuild/obj/script_input_5.rel
                                          [ script_input_5 ]
C:/Users/luisc/AppData/Local/Temp/_gbsbuild/obj/script_input_6.rel
                                          [ script_input_6 ]
C:/Users/luisc/AppData/Local/Temp/_gbsbuild/obj/script_input_7.rel
                                          [ script_input_7 ]
C:/Users/luisc/AppData/Local/Temp/_gbsbuild/obj/script_input_8.rel
                                          [ script_input_8 ]
C:/Users/luisc/AppData/Local/Temp/_gbsbuild/obj/script_input_9.rel
                                          [ script_input_9 ]
C:/Users/luisc/AppData/Local/Temp/_gbsbuild/obj/script_s0_init.rel
                                          [ script_s0_init ]
C:/Users/luisc/AppData/Local/Temp/_gbsbuild/obj/script_s1_init.rel
                                          [ script_s1_init ]
C:/Users/luisc/AppData/Local/Temp/_gbsbuild/obj/script_s10_init.rel
                                          [ script_s10_init ]
C:/Users/luisc/AppData/Local/Temp/_gbsbuild/obj/script_s10_p_hit1.rel
                                          [ script_s10_p_hit1 ]
C:/Users/luisc/AppData/Local/Temp/_gbsbuild/obj/script_s10a0_update.rel
                                          [ script_s10a0_update ]
C:/Users/luisc/AppData/Local/Temp/_gbsbuild/obj/script_s10a1_update.rel
                                          [ script_s10a1_update ]
C:/Users/luisc/AppData/Local/Temp/_gbsbuild/obj/script_s10a10_interact.rel
                                          [ script_s10a10_interact ]
C:/Users/luisc/AppData/Local/Temp/_gbsbuild/obj/script_s10a10_update.rel
                                          [ script_s10a10_update ]
C:/Users/luisc/AppData/Local/Temp/_gbsbuild/obj/script_s10a11_interact.rel
                                          [ script_s10a11_interact ]
C:/Users/luisc/AppData/Local/Temp/_gbsbuild/obj/script_s10a11_update.rel
                                          [ script_s10a11_update ]
C:/Users/luisc/AppData/Local/Temp/_gbsbuild/obj/script_s10a12_interact.rel
                                          [ script_s10a12_interact ]
C:/Users/luisc/AppData/Local/Temp/_gbsbuild/obj/script_s10a12_update.rel
                                          [ script_s10a12_update ]
C:/Users/luisc/AppData/Local/Temp/_gbsbuild/obj/script_s10a13_interact.rel
                                          [ script_s10a13_interact ]
C:/Users/luisc/AppData/Local/Temp/_gbsbuild/obj/script_s10a13_update.rel
                                          [ script_s10a13_update ]
C:/Users/luisc/AppData/Local/Temp/_gbsbuild/obj/script_s10a14_interact.rel
                                          [ script_s10a14_interact ]
C:/Users/luisc/AppData/Local/Temp/_gbsbuild/obj/script_s10a14_update.rel
                                          [ script_s10a14_update ]
C:/Users/luisc/AppData/Local/Temp/_gbsbuild/obj/script_s10a15_interact.rel
                                          [ script_s10a15_interact ]
C:/Users/luisc/AppData/Local/Temp/_gbsbuild/obj/script_s10a15_update.rel
                                          [ script_s10a15_update ]
C:/Users/luisc/AppData/Local/Temp/_gbsbuild/obj/script_s10a16_interact.rel
                                          [ script_s10a16_interact ]
C:/Users/luisc/AppData/Local/Temp/_gbsbuild/obj/script_s10a16_update.rel
                                          [ script_s10a16_update ]
C:/Users/luisc/AppData/Local/Temp/_gbsbuild/obj/script_s10a17_interact.rel
                                          [ script_s10a17_interact ]
C:/Users/luisc/AppData/Local/Temp/_gbsbuild/obj/script_s10a17_update.rel
                                          [ script_s10a17_update ]
C:/Users/luisc/AppData/Local/Temp/_gbsbuild/obj/script_s10a18_interact.rel
                                          [ script_s10a18_interact ]
C:/Users/luisc/AppData/Local/Temp/_gbsbuild/obj/script_s10a18_update.rel
                                          [ script_s10a18_update ]
C:/Users/luisc/AppData/Local/Temp/_gbsbuild/obj/script_s10a19_interact.rel
                                          [ script_s10a19_interact ]
C:/Users/luisc/AppData/Local/Temp/_gbsbuild/obj/script_s10a19_update.rel
                                          [ script_s10a19_update ]
C:/Users/luisc/AppData/Local/Temp/_gbsbuild/obj/script_s10a2_interact.rel
                                          [ script_s10a2_interact ]
C:/Users/luisc/AppData/Local/Temp/_gbsbuild/obj/script_s10a5_interact.rel
                                          [ script_s10a5_interact ]
C:/Users/luisc/AppData/Local/Temp/_gbsbuild/obj/script_s10a5_update.rel
                                          [ script_s10a5_update ]
C:/Users/luisc/AppData/Local/Temp/_gbsbuild/obj/script_s10a6_interact.rel
                                          [ script_s10a6_interact ]
C:/Users/luisc/AppData/Local/Temp/_gbsbuild/obj/script_s10a6_update.rel
                                          [ script_s10a6_update ]
C:/Users/luisc/AppData/Local/Temp/_gbsbuild/obj/script_s10a7_interact.rel
                                          [ script_s10a7_interact ]
C:/Users/luisc/AppData/Local/Temp/_gbsbuild/obj/script_s10a7_update.rel
                                          [ script_s10a7_update ]
C:/Users/luisc/AppData/Local/Temp/_gbsbuild/obj/script_s10a8_interact.rel
                                          [ script_s10a8_interact ]
C:/Users/luisc/AppData/Local/Temp/_gbsbuild/obj/script_s10a8_update.rel
                                          [ script_s10a8_update ]
C:/Users/luisc/AppData/Local/Temp/_gbsbuild/obj/script_s10a9_interact.rel
                                          [ script_s10a9_interact ]
C:/Users/luisc/AppData/Local/Temp/_gbsbuild/obj/script_s10a9_update.rel
                                          [ script_s10a9_update ]
C:/Users/luisc/AppData/Local/Temp/_gbsbuild/obj/script_s10t0_interact.rel
                                          [ script_s10t0_interact ]
C:/Users/luisc/AppData/Local/Temp/_gbsbuild/obj/script_s11_init.rel
                                          [ script_s11_init ]
C:/Users/luisc/AppData/Local/Temp/_gbsbuild/obj/script_s12_init.rel
                                          [ script_s12_init ]
C:/Users/luisc/AppData/Local/Temp/_gbsbuild/obj/script_s12_p_hit1.rel
                                          [ script_s12_p_hit1 ]
C:/Users/luisc/AppData/Local/Temp/_gbsbuild/obj/script_s12a0_update.rel
                                          [ script_s12a0_update ]
C:/Users/luisc/AppData/Local/Temp/_gbsbuild/obj/script_s12a10_interact.rel
                                          [ script_s12a10_interact ]
C:/Users/luisc/AppData/Local/Temp/_gbsbuild/obj/script_s12a10_update.rel
                                          [ script_s12a10_update ]
C:/Users/luisc/AppData/Local/Temp/_gbsbuild/obj/script_s12a11_interact.rel
                                          [ script_s12a11_interact ]
C:/Users/luisc/AppData/Local/Temp/_gbsbuild/obj/script_s12a11_update.rel
                                          [ script_s12a11_update ]
C:/Users/luisc/AppData/Local/Temp/_gbsbuild/obj/script_s12a12_interact.rel
                                          [ script_s12a12_interact ]
C:/Users/luisc/AppData/Local/Temp/_gbsbuild/obj/script_s12a12_update.rel
                                          [ script_s12a12_update ]
C:/Users/luisc/AppData/Local/Temp/_gbsbuild/obj/script_s12a13_interact.rel
                                          [ script_s12a13_interact ]
C:/Users/luisc/AppData/Local/Temp/_gbsbuild/obj/script_s12a13_update.rel
                                          [ script_s12a13_update ]
C:/Users/luisc/AppData/Local/Temp/_gbsbuild/obj/script_s12a14_interact.rel
                                          [ script_s12a14_interact ]
C:/Users/luisc/AppData/Local/Temp/_gbsbuild/obj/script_s12a14_update.rel
                                          [ script_s12a14_update ]
C:/Users/luisc/AppData/Local/Temp/_gbsbuild/obj/script_s12a15_interact.rel
                                          [ script_s12a15_interact ]
C:/Users/luisc/AppData/Local/Temp/_gbsbuild/obj/script_s12a15_update.rel
                                          [ script_s12a15_update ]
C:/Users/luisc/AppData/Local/Temp/_gbsbuild/obj/script_s12a16_interact.rel
                                          [ script_s12a16_interact ]
C:/Users/luisc/AppData/Local/Temp/_gbsbuild/obj/script_s12a16_update.rel
                                          [ script_s12a16_update ]
C:/Users/luisc/AppData/Local/Temp/_gbsbuild/obj/script_s12a17_interact.rel
                                          [ script_s12a17_interact ]
C:/Users/luisc/AppData/Local/Temp/_gbsbuild/obj/script_s12a18_interact.rel
                                          [ script_s12a18_interact ]
C:/Users/luisc/AppData/Local/Temp/_gbsbuild/obj/script_s12a18_update.rel
                                          [ script_s12a18_update ]
C:/Users/luisc/AppData/Local/Temp/_gbsbuild/obj/script_s12a4_interact.rel
                                          [ script_s12a4_interact ]
C:/Users/luisc/AppData/Local/Temp/_gbsbuild/obj/script_s12a4_update.rel
                                          [ script_s12a4_update ]
C:/Users/luisc/AppData/Local/Temp/_gbsbuild/obj/script_s12a5_interact.rel
                                          [ script_s12a5_interact ]
C:/Users/luisc/AppData/Local/Temp/_gbsbuild/obj/script_s12a5_update.rel
                                          [ script_s12a5_update ]
C:/Users/luisc/AppData/Local/Temp/_gbsbuild/obj/script_s12a6_interact.rel
                                          [ script_s12a6_interact ]
C:/Users/luisc/AppData/Local/Temp/_gbsbuild/obj/script_s12a6_update.rel
                                          [ script_s12a6_update ]
C:/Users/luisc/AppData/Local/Temp/_gbsbuild/obj/script_s12a7_interact.rel
                                          [ script_s12a7_interact ]
C:/Users/luisc/AppData/Local/Temp/_gbsbuild/obj/script_s12a7_update.rel
                                          [ script_s12a7_update ]
C:/Users/luisc/AppData/Local/Temp/_gbsbuild/obj/script_s12a8_interact.rel
                                          [ script_s12a8_interact ]
C:/Users/luisc/AppData/Local/Temp/_gbsbuild/obj/script_s12a8_update.rel
                                          [ script_s12a8_update ]
C:/Users/luisc/AppData/Local/Temp/_gbsbuild/obj/script_s12a9_interact.rel
                                          [ script_s12a9_interact ]
C:/Users/luisc/AppData/Local/Temp/_gbsbuild/obj/script_s12a9_update.rel
                                          [ script_s12a9_update ]
C:/Users/luisc/AppData/Local/Temp/_gbsbuild/obj/script_s12t0_interact.rel
                                          [ script_s12t0_interact ]
C:/Users/luisc/AppData/Local/Temp/_gbsbuild/obj/script_s12t1_interact.rel
                                          [ script_s12t1_interact ]
C:/Users/luisc/AppData/Local/Temp/_gbsbuild/obj/script_s13_init.rel
                                          [ script_s13_init ]
C:/Users/luisc/AppData/Local/Temp/_gbsbuild/obj/script_s14_init.rel
                                          [ script_s14_init ]
C:/Users/luisc/AppData/Local/Temp/_gbsbuild/obj/script_s14_p_hit1.rel
                                          [ script_s14_p_hit1 ]
C:/Users/luisc/AppData/Local/Temp/_gbsbuild/obj/script_s14a0_update.rel
                                          [ script_s14a0_update ]
C:/Users/luisc/AppData/Local/Temp/_gbsbuild/obj/script_s14a10_interact.rel
                                          [ script_s14a10_interact ]
C:/Users/luisc/AppData/Local/Temp/_gbsbuild/obj/script_s14a10_update.rel
                                          [ script_s14a10_update ]
C:/Users/luisc/AppData/Local/Temp/_gbsbuild/obj/script_s14a11_interact.rel
                                          [ script_s14a11_interact ]
C:/Users/luisc/AppData/Local/Temp/_gbsbuild/obj/script_s14a11_update.rel
                                          [ script_s14a11_update ]
C:/Users/luisc/AppData/Local/Temp/_gbsbuild/obj/script_s14a12_interact.rel
                                          [ script_s14a12_interact ]
C:/Users/luisc/AppData/Local/Temp/_gbsbuild/obj/script_s14a12_update.rel
                                          [ script_s14a12_update ]
C:/Users/luisc/AppData/Local/Temp/_gbsbuild/obj/script_s14a13_interact.rel
                                          [ script_s14a13_interact ]
C:/Users/luisc/AppData/Local/Temp/_gbsbuild/obj/script_s14a13_update.rel
                                          [ script_s14a13_update ]
C:/Users/luisc/AppData/Local/Temp/_gbsbuild/obj/script_s14a14_interact.rel
                                          [ script_s14a14_interact ]
C:/Users/luisc/AppData/Local/Temp/_gbsbuild/obj/script_s14a14_update.rel
                                          [ script_s14a14_update ]
C:/Users/luisc/AppData/Local/Temp/_gbsbuild/obj/script_s14a15_interact.rel
                                          [ script_s14a15_interact ]
C:/Users/luisc/AppData/Local/Temp/_gbsbuild/obj/script_s14a15_update.rel
                                          [ script_s14a15_update ]
C:/Users/luisc/AppData/Local/Temp/_gbsbuild/obj/script_s14a16_interact.rel
                                          [ script_s14a16_interact ]
C:/Users/luisc/AppData/Local/Temp/_gbsbuild/obj/script_s14a16_update.rel
                                          [ script_s14a16_update ]
C:/Users/luisc/AppData/Local/Temp/_gbsbuild/obj/script_s14a17_interact.rel
                                          [ script_s14a17_interact ]
C:/Users/luisc/AppData/Local/Temp/_gbsbuild/obj/script_s14a17_update.rel
                                          [ script_s14a17_update ]
C:/Users/luisc/AppData/Local/Temp/_gbsbuild/obj/script_s14a18_interact.rel
                                          [ script_s14a18_interact ]
C:/Users/luisc/AppData/Local/Temp/_gbsbuild/obj/script_s14a18_update.rel
                                          [ script_s14a18_update ]
C:/Users/luisc/AppData/Local/Temp/_gbsbuild/obj/script_s14a19_interact.rel
                                          [ script_s14a19_interact ]
C:/Users/luisc/AppData/Local/Temp/_gbsbuild/obj/script_s14a4_interact.rel
                                          [ script_s14a4_interact ]
C:/Users/luisc/AppData/Local/Temp/_gbsbuild/obj/script_s14a4_update.rel
                                          [ script_s14a4_update ]
C:/Users/luisc/AppData/Local/Temp/_gbsbuild/obj/script_s14a5_interact.rel
                                          [ script_s14a5_interact ]
C:/Users/luisc/AppData/Local/Temp/_gbsbuild/obj/script_s14a5_update.rel
                                          [ script_s14a5_update ]
C:/Users/luisc/AppData/Local/Temp/_gbsbuild/obj/script_s14a6_interact.rel
                                          [ script_s14a6_interact ]
C:/Users/luisc/AppData/Local/Temp/_gbsbuild/obj/script_s14a6_update.rel
                                          [ script_s14a6_update ]
C:/Users/luisc/AppData/Local/Temp/_gbsbuild/obj/script_s14a7_interact.rel
                                          [ script_s14a7_interact ]
C:/Users/luisc/AppData/Local/Temp/_gbsbuild/obj/script_s14a7_update.rel
                                          [ script_s14a7_update ]
C:/Users/luisc/AppData/Local/Temp/_gbsbuild/obj/script_s14a8_interact.rel
                                          [ script_s14a8_interact ]
C:/Users/luisc/AppData/Local/Temp/_gbsbuild/obj/script_s14a8_update.rel
                                          [ script_s14a8_update ]
C:/Users/luisc/AppData/Local/Temp/_gbsbuild/obj/script_s14a9_interact.rel
                                          [ script_s14a9_interact ]
C:/Users/luisc/AppData/Local/Temp/_gbsbuild/obj/script_s14a9_update.rel
                                          [ script_s14a9_update ]
C:/Users/luisc/AppData/Local/Temp/_gbsbuild/obj/script_s14t0_interact.rel
                                          [ script_s14t0_interact ]
C:/Users/luisc/AppData/Local/Temp/_gbsbuild/obj/script_s14t1_interact.rel
                                          [ script_s14t1_interact ]
C:/Users/luisc/AppData/Local/Temp/_gbsbuild/obj/script_s15_init.rel
                                          [ script_s15_init ]
C:/Users/luisc/AppData/Local/Temp/_gbsbuild/obj/script_s16_init.rel
                                          [ script_s16_init ]
C:/Users/luisc/AppData/Local/Temp/_gbsbuild/obj/script_s16_p_hit1.rel
                                          [ script_s16_p_hit1 ]
C:/Users/luisc/AppData/Local/Temp/_gbsbuild/obj/script_s16a0_update.rel
                                          [ script_s16a0_update ]
C:/Users/luisc/AppData/Local/Temp/_gbsbuild/obj/script_s16a10_interact.rel
                                          [ script_s16a10_interact ]
C:/Users/luisc/AppData/Local/Temp/_gbsbuild/obj/script_s16a10_update.rel
                                          [ script_s16a10_update ]
C:/Users/luisc/AppData/Local/Temp/_gbsbuild/obj/script_s16a11_interact.rel
                                          [ script_s16a11_interact ]
C:/Users/luisc/AppData/Local/Temp/_gbsbuild/obj/script_s16a11_update.rel
                                          [ script_s16a11_update ]
C:/Users/luisc/AppData/Local/Temp/_gbsbuild/obj/script_s16a12_interact.rel
                                          [ script_s16a12_interact ]
C:/Users/luisc/AppData/Local/Temp/_gbsbuild/obj/script_s16a12_update.rel
                                          [ script_s16a12_update ]
C:/Users/luisc/AppData/Local/Temp/_gbsbuild/obj/script_s16a13_interact.rel
                                          [ script_s16a13_interact ]
C:/Users/luisc/AppData/Local/Temp/_gbsbuild/obj/script_s16a13_update.rel
                                          [ script_s16a13_update ]
C:/Users/luisc/AppData/Local/Temp/_gbsbuild/obj/script_s16a14_interact.rel
                                          [ script_s16a14_interact ]
C:/Users/luisc/AppData/Local/Temp/_gbsbuild/obj/script_s16a14_update.rel
                                          [ script_s16a14_update ]
C:/Users/luisc/AppData/Local/Temp/_gbsbuild/obj/script_s16a15_interact.rel
                                          [ script_s16a15_interact ]
C:/Users/luisc/AppData/Local/Temp/_gbsbuild/obj/script_s16a15_update.rel
                                          [ script_s16a15_update ]
C:/Users/luisc/AppData/Local/Temp/_gbsbuild/obj/script_s16a16_interact.rel
                                          [ script_s16a16_interact ]
C:/Users/luisc/AppData/Local/Temp/_gbsbuild/obj/script_s16a17_interact.rel
                                          [ script_s16a17_interact ]
C:/Users/luisc/AppData/Local/Temp/_gbsbuild/obj/script_s16a17_update.rel
                                          [ script_s16a17_update ]
C:/Users/luisc/AppData/Local/Temp/_gbsbuild/obj/script_s16a18_interact.rel
                                          [ script_s16a18_interact ]
C:/Users/luisc/AppData/Local/Temp/_gbsbuild/obj/script_s16a18_update.rel
                                          [ script_s16a18_update ]
C:/Users/luisc/AppData/Local/Temp/_gbsbuild/obj/script_s16a19_interact.rel
                                          [ script_s16a19_interact ]
C:/Users/luisc/AppData/Local/Temp/_gbsbuild/obj/script_s16a19_update.rel
                                          [ script_s16a19_update ]
C:/Users/luisc/AppData/Local/Temp/_gbsbuild/obj/script_s16a4_interact.rel
                                          [ script_s16a4_interact ]
C:/Users/luisc/AppData/Local/Temp/_gbsbuild/obj/script_s16a4_update.rel
                                          [ script_s16a4_update ]
C:/Users/luisc/AppData/Local/Temp/_gbsbuild/obj/script_s16a5_interact.rel
                                          [ script_s16a5_interact ]
C:/Users/luisc/AppData/Local/Temp/_gbsbuild/obj/script_s16a5_update.rel
                                          [ script_s16a5_update ]
C:/Users/luisc/AppData/Local/Temp/_gbsbuild/obj/script_s16a6_interact.rel
                                          [ script_s16a6_interact ]
C:/Users/luisc/AppData/Local/Temp/_gbsbuild/obj/script_s16a6_update.rel
                                          [ script_s16a6_update ]
C:/Users/luisc/AppData/Local/Temp/_gbsbuild/obj/script_s16a7_interact.rel
                                          [ script_s16a7_interact ]
C:/Users/luisc/AppData/Local/Temp/_gbsbuild/obj/script_s16a7_update.rel
                                          [ script_s16a7_update ]
C:/Users/luisc/AppData/Local/Temp/_gbsbuild/obj/script_s16a8_interact.rel
                                          [ script_s16a8_interact ]
C:/Users/luisc/AppData/Local/Temp/_gbsbuild/obj/script_s16a8_update.rel
                                          [ script_s16a8_update ]
C:/Users/luisc/AppData/Local/Temp/_gbsbuild/obj/script_s16a9_interact.rel
                                          [ script_s16a9_interact ]
C:/Users/luisc/AppData/Local/Temp/_gbsbuild/obj/script_s16a9_update.rel
                                          [ script_s16a9_update ]
C:/Users/luisc/AppData/Local/Temp/_gbsbuild/obj/script_s16t0_interact.rel
                                          [ script_s16t0_interact ]
C:/Users/luisc/AppData/Local/Temp/_gbsbuild/obj/script_s17_init.rel
                                          [ script_s17_init ]
C:/Users/luisc/AppData/Local/Temp/_gbsbuild/obj/script_s18_init.rel
                                          [ script_s18_init ]
C:/Users/luisc/AppData/Local/Temp/_gbsbuild/obj/script_s18_p_hit1.rel
                                          [ script_s18_p_hit1 ]
C:/Users/luisc/AppData/Local/Temp/_gbsbuild/obj/script_s18a0_update.rel
                                          [ script_s18a0_update ]
C:/Users/luisc/AppData/Local/Temp/_gbsbuild/obj/script_s18a10_interact.rel
                                          [ script_s18a10_interact ]
C:/Users/luisc/AppData/Local/Temp/_gbsbuild/obj/script_s18a10_update.rel
                                          [ script_s18a10_update ]
C:/Users/luisc/AppData/Local/Temp/_gbsbuild/obj/script_s18a11_interact.rel
                                          [ script_s18a11_interact ]
C:/Users/luisc/AppData/Local/Temp/_gbsbuild/obj/script_s18a11_update.rel
                                          [ script_s18a11_update ]
C:/Users/luisc/AppData/Local/Temp/_gbsbuild/obj/script_s18a12_interact.rel
                                          [ script_s18a12_interact ]
C:/Users/luisc/AppData/Local/Temp/_gbsbuild/obj/script_s18a12_update.rel
                                          [ script_s18a12_update ]
C:/Users/luisc/AppData/Local/Temp/_gbsbuild/obj/script_s18a13_interact.rel
                                          [ script_s18a13_interact ]
C:/Users/luisc/AppData/Local/Temp/_gbsbuild/obj/script_s18a13_update.rel
                                          [ script_s18a13_update ]
C:/Users/luisc/AppData/Local/Temp/_gbsbuild/obj/script_s18a14_interact.rel
                                          [ script_s18a14_interact ]
C:/Users/luisc/AppData/Local/Temp/_gbsbuild/obj/script_s18a14_update.rel
                                          [ script_s18a14_update ]
C:/Users/luisc/AppData/Local/Temp/_gbsbuild/obj/script_s18a15_interact.rel
                                          [ script_s18a15_interact ]
C:/Users/luisc/AppData/Local/Temp/_gbsbuild/obj/script_s18a15_update.rel
                                          [ script_s18a15_update ]
C:/Users/luisc/AppData/Local/Temp/_gbsbuild/obj/script_s18a16_interact.rel
                                          [ script_s18a16_interact ]
C:/Users/luisc/AppData/Local/Temp/_gbsbuild/obj/script_s18a16_update.rel
                                          [ script_s18a16_update ]
C:/Users/luisc/AppData/Local/Temp/_gbsbuild/obj/script_s18a17_interact.rel
                                          [ script_s18a17_interact ]
C:/Users/luisc/AppData/Local/Temp/_gbsbuild/obj/script_s18a17_update.rel
                                          [ script_s18a17_update ]
C:/Users/luisc/AppData/Local/Temp/_gbsbuild/obj/script_s18a18_interact.rel
                                          [ script_s18a18_interact ]
C:/Users/luisc/AppData/Local/Temp/_gbsbuild/obj/script_s18a18_update.rel
                                          [ script_s18a18_update ]
C:/Users/luisc/AppData/Local/Temp/_gbsbuild/obj/script_s18a19_interact.rel
                                          [ script_s18a19_interact ]
C:/Users/luisc/AppData/Local/Temp/_gbsbuild/obj/script_s18a4_interact.rel
                                          [ script_s18a4_interact ]
C:/Users/luisc/AppData/Local/Temp/_gbsbuild/obj/script_s18a4_update.rel
                                          [ script_s18a4_update ]
C:/Users/luisc/AppData/Local/Temp/_gbsbuild/obj/script_s18a5_interact.rel
                                          [ script_s18a5_interact ]
C:/Users/luisc/AppData/Local/Temp/_gbsbuild/obj/script_s18a5_update.rel
                                          [ script_s18a5_update ]
C:/Users/luisc/AppData/Local/Temp/_gbsbuild/obj/script_s18a6_interact.rel
                                          [ script_s18a6_interact ]
C:/Users/luisc/AppData/Local/Temp/_gbsbuild/obj/script_s18a6_update.rel
                                          [ script_s18a6_update ]
C:/Users/luisc/AppData/Local/Temp/_gbsbuild/obj/script_s18a7_interact.rel
                                          [ script_s18a7_interact ]
C:/Users/luisc/AppData/Local/Temp/_gbsbuild/obj/script_s18a7_update.rel
                                          [ script_s18a7_update ]
C:/Users/luisc/AppData/Local/Temp/_gbsbuild/obj/script_s18a8_interact.rel
                                          [ script_s18a8_interact ]
C:/Users/luisc/AppData/Local/Temp/_gbsbuild/obj/script_s18a8_update.rel
                                          [ script_s18a8_update ]
C:/Users/luisc/AppData/Local/Temp/_gbsbuild/obj/script_s18a9_interact.rel
                                          [ script_s18a9_interact ]
C:/Users/luisc/AppData/Local/Temp/_gbsbuild/obj/script_s18a9_update.rel
                                          [ script_s18a9_update ]
C:/Users/luisc/AppData/Local/Temp/_gbsbuild/obj/script_s18t0_interact.rel
                                          [ script_s18t0_interact ]
C:/Users/luisc/AppData/Local/Temp/_gbsbuild/obj/script_s19_init.rel
                                          [ script_s19_init ]
C:/Users/luisc/AppData/Local/Temp/_gbsbuild/obj/script_s2_init.rel
                                          [ script_s2_init ]
C:/Users/luisc/AppData/Local/Temp/_gbsbuild/obj/script_s20_init.rel
                                          [ script_s20_init ]
C:/Users/luisc/AppData/Local/Temp/_gbsbuild/obj/script_s20_p_hit1.rel
                                          [ script_s20_p_hit1 ]
C:/Users/luisc/AppData/Local/Temp/_gbsbuild/obj/script_s20a0_update.rel
                                          [ script_s20a0_update ]
C:/Users/luisc/AppData/Local/Temp/_gbsbuild/obj/script_s20a3_interact.rel
                                          [ script_s20a3_interact ]
C:/Users/luisc/AppData/Local/Temp/_gbsbuild/obj/script_s20a3_update.rel
                                          [ script_s20a3_update ]
C:/Users/luisc/AppData/Local/Temp/_gbsbuild/obj/script_s20a5_interact.rel
                                          [ script_s20a5_interact ]
C:/Users/luisc/AppData/Local/Temp/_gbsbuild/obj/script_s20t0_interact.rel
                                          [ script_s20t0_interact ]
C:/Users/luisc/AppData/Local/Temp/_gbsbuild/obj/script_s21_init.rel
                                          [ script_s21_init ]
C:/Users/luisc/AppData/Local/Temp/_gbsbuild/obj/script_s22_init.rel
                                          [ script_s22_init ]
C:/Users/luisc/AppData/Local/Temp/_gbsbuild/obj/script_s22_p_hit1.rel
                                          [ script_s22_p_hit1 ]
C:/Users/luisc/AppData/Local/Temp/_gbsbuild/obj/script_s22a0_update.rel
                                          [ script_s22a0_update ]
C:/Users/luisc/AppData/Local/Temp/_gbsbuild/obj/script_s22a10_interact.rel
                                          [ script_s22a10_interact ]
C:/Users/luisc/AppData/Local/Temp/_gbsbuild/obj/script_s22a10_update.rel
                                          [ script_s22a10_update ]
C:/Users/luisc/AppData/Local/Temp/_gbsbuild/obj/script_s22a12_interact.rel
                                          [ script_s22a12_interact ]
C:/Users/luisc/AppData/Local/Temp/_gbsbuild/obj/script_s22a12_update.rel
                                          [ script_s22a12_update ]
C:/Users/luisc/AppData/Local/Temp/_gbsbuild/obj/script_s22a13_interact.rel
                                          [ script_s22a13_interact ]
C:/Users/luisc/AppData/Local/Temp/_gbsbuild/obj/script_s22a13_update.rel
                                          [ script_s22a13_update ]
C:/Users/luisc/AppData/Local/Temp/_gbsbuild/obj/script_s22a14_interact.rel
                                          [ script_s22a14_interact ]
C:/Users/luisc/AppData/Local/Temp/_gbsbuild/obj/script_s22a14_update.rel
                                          [ script_s22a14_update ]
C:/Users/luisc/AppData/Local/Temp/_gbsbuild/obj/script_s22a15_interact.rel
                                          [ script_s22a15_interact ]
C:/Users/luisc/AppData/Local/Temp/_gbsbuild/obj/script_s22a15_update.rel
                                          [ script_s22a15_update ]
C:/Users/luisc/AppData/Local/Temp/_gbsbuild/obj/script_s22a16_interact.rel
                                          [ script_s22a16_interact ]
C:/Users/luisc/AppData/Local/Temp/_gbsbuild/obj/script_s22a16_update.rel
                                          [ script_s22a16_update ]
C:/Users/luisc/AppData/Local/Temp/_gbsbuild/obj/script_s22a17_interact.rel
                                          [ script_s22a17_interact ]
C:/Users/luisc/AppData/Local/Temp/_gbsbuild/obj/script_s22a17_update.rel
                                          [ script_s22a17_update ]
C:/Users/luisc/AppData/Local/Temp/_gbsbuild/obj/script_s22a18_interact.rel
                                          [ script_s22a18_interact ]
C:/Users/luisc/AppData/Local/Temp/_gbsbuild/obj/script_s22a4_interact.rel
                                          [ script_s22a4_interact ]
C:/Users/luisc/AppData/Local/Temp/_gbsbuild/obj/script_s22a4_update.rel
                                          [ script_s22a4_update ]
C:/Users/luisc/AppData/Local/Temp/_gbsbuild/obj/script_s22a5_update.rel
                                          [ script_s22a5_update ]
C:/Users/luisc/AppData/Local/Temp/_gbsbuild/obj/script_s22a6_interact.rel
                                          [ script_s22a6_interact ]
C:/Users/luisc/AppData/Local/Temp/_gbsbuild/obj/script_s22a6_update.rel
                                          [ script_s22a6_update ]
C:/Users/luisc/AppData/Local/Temp/_gbsbuild/obj/script_s22a7_interact.rel
                                          [ script_s22a7_interact ]
C:/Users/luisc/AppData/Local/Temp/_gbsbuild/obj/script_s22a7_update.rel
                                          [ script_s22a7_update ]
C:/Users/luisc/AppData/Local/Temp/_gbsbuild/obj/script_s22a8_interact.rel
                                          [ script_s22a8_interact ]
C:/Users/luisc/AppData/Local/Temp/_gbsbuild/obj/script_s22a8_update.rel
                                          [ script_s22a8_update ]
C:/Users/luisc/AppData/Local/Temp/_gbsbuild/obj/script_s22a9_interact.rel
                                          [ script_s22a9_interact ]
C:/Users/luisc/AppData/Local/Temp/_gbsbuild/obj/script_s22a9_update.rel
                                          [ script_s22a9_update ]
C:/Users/luisc/AppData/Local/Temp/_gbsbuild/obj/script_s22t0_interact.rel
                                          [ script_s22t0_interact ]
C:/Users/luisc/AppData/Local/Temp/_gbsbuild/obj/script_s22t1_interact.rel
                                          [ script_s22t1_interact ]
C:/Users/luisc/AppData/Local/Temp/_gbsbuild/obj/script_s23_init.rel
                                          [ script_s23_init ]
C:/Users/luisc/AppData/Local/Temp/_gbsbuild/obj/script_s24_init.rel
                                          [ script_s24_init ]
C:/Users/luisc/AppData/Local/Temp/_gbsbuild/obj/script_s24_p_hit1.rel
                                          [ script_s24_p_hit1 ]
C:/Users/luisc/AppData/Local/Temp/_gbsbuild/obj/script_s24a0_update.rel
                                          [ script_s24a0_update ]
C:/Users/luisc/AppData/Local/Temp/_gbsbuild/obj/script_s24a10_interact.rel
                                          [ script_s24a10_interact ]
C:/Users/luisc/AppData/Local/Temp/_gbsbuild/obj/script_s24a10_update.rel
                                          [ script_s24a10_update ]
C:/Users/luisc/AppData/Local/Temp/_gbsbuild/obj/script_s24a11_interact.rel
                                          [ script_s24a11_interact ]
C:/Users/luisc/AppData/Local/Temp/_gbsbuild/obj/script_s24a11_update.rel
                                          [ script_s24a11_update ]
C:/Users/luisc/AppData/Local/Temp/_gbsbuild/obj/script_s24a12_interact.rel
                                          [ script_s24a12_interact ]
C:/Users/luisc/AppData/Local/Temp/_gbsbuild/obj/script_s24a12_update.rel
                                          [ script_s24a12_update ]
C:/Users/luisc/AppData/Local/Temp/_gbsbuild/obj/script_s24a13_interact.rel
                                          [ script_s24a13_interact ]
C:/Users/luisc/AppData/Local/Temp/_gbsbuild/obj/script_s24a13_update.rel
                                          [ script_s24a13_update ]
C:/Users/luisc/AppData/Local/Temp/_gbsbuild/obj/script_s24a14_interact.rel
                                          [ script_s24a14_interact ]
C:/Users/luisc/AppData/Local/Temp/_gbsbuild/obj/script_s24a14_update.rel
                                          [ script_s24a14_update ]
C:/Users/luisc/AppData/Local/Temp/_gbsbuild/obj/script_s24a15_interact.rel
                                          [ script_s24a15_interact ]
C:/Users/luisc/AppData/Local/Temp/_gbsbuild/obj/script_s24a15_update.rel
                                          [ script_s24a15_update ]
C:/Users/luisc/AppData/Local/Temp/_gbsbuild/obj/script_s24a16_interact.rel
                                          [ script_s24a16_interact ]
C:/Users/luisc/AppData/Local/Temp/_gbsbuild/obj/script_s24a16_update.rel
                                          [ script_s24a16_update ]
C:/Users/luisc/AppData/Local/Temp/_gbsbuild/obj/script_s24a17_interact.rel
                                          [ script_s24a17_interact ]
C:/Users/luisc/AppData/Local/Temp/_gbsbuild/obj/script_s24a17_update.rel
                                          [ script_s24a17_update ]
C:/Users/luisc/AppData/Local/Temp/_gbsbuild/obj/script_s24a18_interact.rel
                                          [ script_s24a18_interact ]
C:/Users/luisc/AppData/Local/Temp/_gbsbuild/obj/script_s24a18_update.rel
                                          [ script_s24a18_update ]
C:/Users/luisc/AppData/Local/Temp/_gbsbuild/obj/script_s24a19_interact.rel
                                          [ script_s24a19_interact ]
C:/Users/luisc/AppData/Local/Temp/_gbsbuild/obj/script_s24a2_interact.rel
                                          [ script_s24a2_interact ]
C:/Users/luisc/AppData/Local/Temp/_gbsbuild/obj/script_s24a2_update.rel
                                          [ script_s24a2_update ]
C:/Users/luisc/AppData/Local/Temp/_gbsbuild/obj/script_s24a5_interact.rel
                                          [ script_s24a5_interact ]
C:/Users/luisc/AppData/Local/Temp/_gbsbuild/obj/script_s24a5_update.rel
                                          [ script_s24a5_update ]
C:/Users/luisc/AppData/Local/Temp/_gbsbuild/obj/script_s24a6_interact.rel
                                          [ script_s24a6_interact ]
C:/Users/luisc/AppData/Local/Temp/_gbsbuild/obj/script_s24a6_update.rel
                                          [ script_s24a6_update ]
C:/Users/luisc/AppData/Local/Temp/_gbsbuild/obj/script_s24a7_interact.rel
                                          [ script_s24a7_interact ]
C:/Users/luisc/AppData/Local/Temp/_gbsbuild/obj/script_s24a7_update.rel
                                          [ script_s24a7_update ]
C:/Users/luisc/AppData/Local/Temp/_gbsbuild/obj/script_s24a8_interact.rel
                                          [ script_s24a8_interact ]
C:/Users/luisc/AppData/Local/Temp/_gbsbuild/obj/script_s24a8_update.rel
                                          [ script_s24a8_update ]
C:/Users/luisc/AppData/Local/Temp/_gbsbuild/obj/script_s24a9_interact.rel
                                          [ script_s24a9_interact ]
C:/Users/luisc/AppData/Local/Temp/_gbsbuild/obj/script_s24a9_update.rel
                                          [ script_s24a9_update ]
C:/Users/luisc/AppData/Local/Temp/_gbsbuild/obj/script_s24t0_interact.rel
                                          [ script_s24t0_interact ]
C:/Users/luisc/AppData/Local/Temp/_gbsbuild/obj/script_s24t1_interact.rel
                                          [ script_s24t1_interact ]
C:/Users/luisc/AppData/Local/Temp/_gbsbuild/obj/script_s25_init.rel
                                          [ script_s25_init ]
C:/Users/luisc/AppData/Local/Temp/_gbsbuild/obj/script_s26_init.rel
                                          [ script_s26_init ]
C:/Users/luisc/AppData/Local/Temp/_gbsbuild/obj/script_s26_p_hit1.rel
                                          [ script_s26_p_hit1 ]
C:/Users/luisc/AppData/Local/Temp/_gbsbuild/obj/script_s26a0_update.rel
                                          [ script_s26a0_update ]
C:/Users/luisc/AppData/Local/Temp/_gbsbuild/obj/script_s26a10_interact.rel
                                          [ script_s26a10_interact ]
C:/Users/luisc/AppData/Local/Temp/_gbsbuild/obj/script_s26a10_update.rel
                                          [ script_s26a10_update ]
C:/Users/luisc/AppData/Local/Temp/_gbsbuild/obj/script_s26a11_interact.rel
                                          [ script_s26a11_interact ]
C:/Users/luisc/AppData/Local/Temp/_gbsbuild/obj/script_s26a11_update.rel
                                          [ script_s26a11_update ]
C:/Users/luisc/AppData/Local/Temp/_gbsbuild/obj/script_s26a12_interact.rel
                                          [ script_s26a12_interact ]
C:/Users/luisc/AppData/Local/Temp/_gbsbuild/obj/script_s26a12_update.rel
                                          [ script_s26a12_update ]
C:/Users/luisc/AppData/Local/Temp/_gbsbuild/obj/script_s26a13_interact.rel
                                          [ script_s26a13_interact ]
C:/Users/luisc/AppData/Local/Temp/_gbsbuild/obj/script_s26a13_update.rel
                                          [ script_s26a13_update ]
C:/Users/luisc/AppData/Local/Temp/_gbsbuild/obj/script_s26a14_interact.rel
                                          [ script_s26a14_interact ]
C:/Users/luisc/AppData/Local/Temp/_gbsbuild/obj/script_s26a15_interact.rel
                                          [ script_s26a15_interact ]
C:/Users/luisc/AppData/Local/Temp/_gbsbuild/obj/script_s26a15_update.rel
                                          [ script_s26a15_update ]
C:/Users/luisc/AppData/Local/Temp/_gbsbuild/obj/script_s26a16_interact.rel
                                          [ script_s26a16_interact ]
C:/Users/luisc/AppData/Local/Temp/_gbsbuild/obj/script_s26a16_update.rel
                                          [ script_s26a16_update ]
C:/Users/luisc/AppData/Local/Temp/_gbsbuild/obj/script_s26a17_interact.rel
                                          [ script_s26a17_interact ]
C:/Users/luisc/AppData/Local/Temp/_gbsbuild/obj/script_s26a17_update.rel
                                          [ script_s26a17_update ]
C:/Users/luisc/AppData/Local/Temp/_gbsbuild/obj/script_s26a18_interact.rel
                                          [ script_s26a18_interact ]
C:/Users/luisc/AppData/Local/Temp/_gbsbuild/obj/script_s26a18_update.rel
                                          [ script_s26a18_update ]
C:/Users/luisc/AppData/Local/Temp/_gbsbuild/obj/script_s26a19_interact.rel
                                          [ script_s26a19_interact ]
C:/Users/luisc/AppData/Local/Temp/_gbsbuild/obj/script_s26a19_update.rel
                                          [ script_s26a19_update ]
C:/Users/luisc/AppData/Local/Temp/_gbsbuild/obj/script_s26a4_interact.rel
                                          [ script_s26a4_interact ]
C:/Users/luisc/AppData/Local/Temp/_gbsbuild/obj/script_s26a4_update.rel
                                          [ script_s26a4_update ]
C:/Users/luisc/AppData/Local/Temp/_gbsbuild/obj/script_s26a5_interact.rel
                                          [ script_s26a5_interact ]
C:/Users/luisc/AppData/Local/Temp/_gbsbuild/obj/script_s26a5_update.rel
                                          [ script_s26a5_update ]
C:/Users/luisc/AppData/Local/Temp/_gbsbuild/obj/script_s26a6_interact.rel
                                          [ script_s26a6_interact ]
C:/Users/luisc/AppData/Local/Temp/_gbsbuild/obj/script_s26a6_update.rel
                                          [ script_s26a6_update ]
C:/Users/luisc/AppData/Local/Temp/_gbsbuild/obj/script_s26a7_interact.rel
                                          [ script_s26a7_interact ]
C:/Users/luisc/AppData/Local/Temp/_gbsbuild/obj/script_s26a7_update.rel
                                          [ script_s26a7_update ]
C:/Users/luisc/AppData/Local/Temp/_gbsbuild/obj/script_s26a8_interact.rel
                                          [ script_s26a8_interact ]
C:/Users/luisc/AppData/Local/Temp/_gbsbuild/obj/script_s26a8_update.rel
                                          [ script_s26a8_update ]
C:/Users/luisc/AppData/Local/Temp/_gbsbuild/obj/script_s26a9_interact.rel
                                          [ script_s26a9_interact ]
C:/Users/luisc/AppData/Local/Temp/_gbsbuild/obj/script_s26a9_update.rel
                                          [ script_s26a9_update ]
C:/Users/luisc/AppData/Local/Temp/_gbsbuild/obj/script_s26t0_interact.rel
                                          [ script_s26t0_interact ]
C:/Users/luisc/AppData/Local/Temp/_gbsbuild/obj/script_s26t1_interact.rel
                                          [ script_s26t1_interact ]
C:/Users/luisc/AppData/Local/Temp/_gbsbuild/obj/script_s26t2_interact.rel
                                          [ script_s26t2_interact ]
C:/Users/luisc/AppData/Local/Temp/_gbsbuild/obj/script_s27_init.rel
                                          [ script_s27_init ]
C:/Users/luisc/AppData/Local/Temp/_gbsbuild/obj/script_s28_init.rel
                                          [ script_s28_init ]
C:/Users/luisc/AppData/Local/Temp/_gbsbuild/obj/script_s28_p_hit1.rel
                                          [ script_s28_p_hit1 ]
C:/Users/luisc/AppData/Local/Temp/_gbsbuild/obj/script_s28a2_interact.rel
                                          [ script_s28a2_interact ]
C:/Users/luisc/AppData/Local/Temp/_gbsbuild/obj/script_s28a2_update.rel
                                          [ script_s28a2_update ]
C:/Users/luisc/AppData/Local/Temp/_gbsbuild/obj/script_s28a3_interact.rel
                                          [ script_s28a3_interact ]
C:/Users/luisc/AppData/Local/Temp/_gbsbuild/obj/script_s28a4_update.rel
                                          [ script_s28a4_update ]
C:/Users/luisc/AppData/Local/Temp/_gbsbuild/obj/script_s28t0_interact.rel
                                          [ script_s28t0_interact ]
C:/Users/luisc/AppData/Local/Temp/_gbsbuild/obj/script_s29_init.rel
                                          [ script_s29_init ]
C:/Users/luisc/AppData/Local/Temp/_gbsbuild/obj/script_s2a0_update.rel
                                          [ script_s2a0_update ]
C:/Users/luisc/AppData/Local/Temp/_gbsbuild/obj/script_s3_init.rel
                                          [ script_s3_init ]
C:/Users/luisc/AppData/Local/Temp/_gbsbuild/obj/script_s30_init.rel
                                          [ script_s30_init ]
C:/Users/luisc/AppData/Local/Temp/_gbsbuild/obj/script_s30_p_hit1.rel
                                          [ script_s30_p_hit1 ]
C:/Users/luisc/AppData/Local/Temp/_gbsbuild/obj/script_s30a0_update.rel
                                          [ script_s30a0_update ]
C:/Users/luisc/AppData/Local/Temp/_gbsbuild/obj/script_s30a10_interact.rel
                                          [ script_s30a10_interact ]
C:/Users/luisc/AppData/Local/Temp/_gbsbuild/obj/script_s30a10_update.rel
                                          [ script_s30a10_update ]
C:/Users/luisc/AppData/Local/Temp/_gbsbuild/obj/script_s30a11_interact.rel
                                          [ script_s30a11_interact ]
C:/Users/luisc/AppData/Local/Temp/_gbsbuild/obj/script_s30a11_update.rel
                                          [ script_s30a11_update ]
C:/Users/luisc/AppData/Local/Temp/_gbsbuild/obj/script_s30a12_interact.rel
                                          [ script_s30a12_interact ]
C:/Users/luisc/AppData/Local/Temp/_gbsbuild/obj/script_s30a12_update.rel
                                          [ script_s30a12_update ]
C:/Users/luisc/AppData/Local/Temp/_gbsbuild/obj/script_s30a13_interact.rel
                                          [ script_s30a13_interact ]
C:/Users/luisc/AppData/Local/Temp/_gbsbuild/obj/script_s30a13_update.rel
                                          [ script_s30a13_update ]
C:/Users/luisc/AppData/Local/Temp/_gbsbuild/obj/script_s30a14_interact.rel
                                          [ script_s30a14_interact ]
C:/Users/luisc/AppData/Local/Temp/_gbsbuild/obj/script_s30a14_update.rel
                                          [ script_s30a14_update ]
C:/Users/luisc/AppData/Local/Temp/_gbsbuild/obj/script_s30a15_interact.rel
                                          [ script_s30a15_interact ]
C:/Users/luisc/AppData/Local/Temp/_gbsbuild/obj/script_s30a15_update.rel
                                          [ script_s30a15_update ]
C:/Users/luisc/AppData/Local/Temp/_gbsbuild/obj/script_s30a16_interact.rel
                                          [ script_s30a16_interact ]
C:/Users/luisc/AppData/Local/Temp/_gbsbuild/obj/script_s30a16_update.rel
                                          [ script_s30a16_update ]
C:/Users/luisc/AppData/Local/Temp/_gbsbuild/obj/script_s30a17_interact.rel
                                          [ script_s30a17_interact ]
C:/Users/luisc/AppData/Local/Temp/_gbsbuild/obj/script_s30a18_interact.rel
                                          [ script_s30a18_interact ]
C:/Users/luisc/AppData/Local/Temp/_gbsbuild/obj/script_s30a18_update.rel
                                          [ script_s30a18_update ]
C:/Users/luisc/AppData/Local/Temp/_gbsbuild/obj/script_s30a19_interact.rel
                                          [ script_s30a19_interact ]
C:/Users/luisc/AppData/Local/Temp/_gbsbuild/obj/script_s30a19_update.rel
                                          [ script_s30a19_update ]
C:/Users/luisc/AppData/Local/Temp/_gbsbuild/obj/script_s30a4_interact.rel
                                          [ script_s30a4_interact ]
C:/Users/luisc/AppData/Local/Temp/_gbsbuild/obj/script_s30a4_update.rel
                                          [ script_s30a4_update ]
C:/Users/luisc/AppData/Local/Temp/_gbsbuild/obj/script_s30a5_interact.rel
                                          [ script_s30a5_interact ]
C:/Users/luisc/AppData/Local/Temp/_gbsbuild/obj/script_s30a5_update.rel
                                          [ script_s30a5_update ]
C:/Users/luisc/AppData/Local/Temp/_gbsbuild/obj/script_s30a6_interact.rel
                                          [ script_s30a6_interact ]
C:/Users/luisc/AppData/Local/Temp/_gbsbuild/obj/script_s30a6_update.rel
                                          [ script_s30a6_update ]
C:/Users/luisc/AppData/Local/Temp/_gbsbuild/obj/script_s30a7_interact.rel
                                          [ script_s30a7_interact ]
C:/Users/luisc/AppData/Local/Temp/_gbsbuild/obj/script_s30a7_update.rel
                                          [ script_s30a7_update ]
C:/Users/luisc/AppData/Local/Temp/_gbsbuild/obj/script_s30a8_interact.rel
                                          [ script_s30a8_interact ]
C:/Users/luisc/AppData/Local/Temp/_gbsbuild/obj/script_s30a8_update.rel
                                          [ script_s30a8_update ]
C:/Users/luisc/AppData/Local/Temp/_gbsbuild/obj/script_s30a9_interact.rel
                                          [ script_s30a9_interact ]
C:/Users/luisc/AppData/Local/Temp/_gbsbuild/obj/script_s30a9_update.rel
                                          [ script_s30a9_update ]
C:/Users/luisc/AppData/Local/Temp/_gbsbuild/obj/script_s30t0_interact.rel
                                          [ script_s30t0_interact ]
C:/Users/luisc/AppData/Local/Temp/_gbsbuild/obj/script_s30t1_interact.rel
                                          [ script_s30t1_interact ]
C:/Users/luisc/AppData/Local/Temp/_gbsbuild/obj/script_s30t10_interact.rel
                                          [ script_s30t10_interact ]
C:/Users/luisc/AppData/Local/Temp/_gbsbuild/obj/script_s30t2_interact.rel
                                          [ script_s30t2_interact ]
C:/Users/luisc/AppData/Local/Temp/_gbsbuild/obj/script_s30t3_interact.rel
                                          [ script_s30t3_interact ]
C:/Users/luisc/AppData/Local/Temp/_gbsbuild/obj/script_s30t4_interact.rel
                                          [ script_s30t4_interact ]
C:/Users/luisc/AppData/Local/Temp/_gbsbuild/obj/script_s30t5_interact.rel
                                          [ script_s30t5_interact ]
C:/Users/luisc/AppData/Local/Temp/_gbsbuild/obj/script_s30t6_interact.rel
                                          [ script_s30t6_interact ]
C:/Users/luisc/AppData/Local/Temp/_gbsbuild/obj/script_s30t7_interact.rel
                                          [ script_s30t7_interact ]
C:/Users/luisc/AppData/Local/Temp/_gbsbuild/obj/script_s30t8_interact.rel
                                          [ script_s30t8_interact ]
C:/Users/luisc/AppData/Local/Temp/_gbsbuild/obj/script_s30t9_interact.rel
                                          [ script_s30t9_interact ]
C:/Users/luisc/AppData/Local/Temp/_gbsbuild/obj/script_s31_init.rel
                                          [ script_s31_init ]
C:/Users/luisc/AppData/Local/Temp/_gbsbuild/obj/script_s32_init.rel
                                          [ script_s32_init ]
C:/Users/luisc/AppData/Local/Temp/_gbsbuild/obj/script_s32_p_hit1.rel
                                          [ script_s32_p_hit1 ]
C:/Users/luisc/AppData/Local/Temp/_gbsbuild/obj/script_s32a0_update.rel
                                          [ script_s32a0_update ]
C:/Users/luisc/AppData/Local/Temp/_gbsbuild/obj/script_s32a10_interact.rel
                                          [ script_s32a10_interact ]
C:/Users/luisc/AppData/Local/Temp/_gbsbuild/obj/script_s32a10_update.rel
                                          [ script_s32a10_update ]
C:/Users/luisc/AppData/Local/Temp/_gbsbuild/obj/script_s32a11_interact.rel
                                          [ script_s32a11_interact ]
C:/Users/luisc/AppData/Local/Temp/_gbsbuild/obj/script_s32a11_update.rel
                                          [ script_s32a11_update ]
C:/Users/luisc/AppData/Local/Temp/_gbsbuild/obj/script_s32a12_interact.rel
                                          [ script_s32a12_interact ]
C:/Users/luisc/AppData/Local/Temp/_gbsbuild/obj/script_s32a12_update.rel
                                          [ script_s32a12_update ]
C:/Users/luisc/AppData/Local/Temp/_gbsbuild/obj/script_s32a13_interact.rel
                                          [ script_s32a13_interact ]
C:/Users/luisc/AppData/Local/Temp/_gbsbuild/obj/script_s32a13_update.rel
                                          [ script_s32a13_update ]
C:/Users/luisc/AppData/Local/Temp/_gbsbuild/obj/script_s32a14_interact.rel
                                          [ script_s32a14_interact ]
C:/Users/luisc/AppData/Local/Temp/_gbsbuild/obj/script_s32a14_update.rel
                                          [ script_s32a14_update ]
C:/Users/luisc/AppData/Local/Temp/_gbsbuild/obj/script_s32a15_interact.rel
                                          [ script_s32a15_interact ]
C:/Users/luisc/AppData/Local/Temp/_gbsbuild/obj/script_s32a15_update.rel
                                          [ script_s32a15_update ]
C:/Users/luisc/AppData/Local/Temp/_gbsbuild/obj/script_s32a16_interact.rel
                                          [ script_s32a16_interact ]
C:/Users/luisc/AppData/Local/Temp/_gbsbuild/obj/script_s32a16_update.rel
                                          [ script_s32a16_update ]
C:/Users/luisc/AppData/Local/Temp/_gbsbuild/obj/script_s32a17_interact.rel
                                          [ script_s32a17_interact ]
C:/Users/luisc/AppData/Local/Temp/_gbsbuild/obj/script_s32a17_update.rel
                                          [ script_s32a17_update ]
C:/Users/luisc/AppData/Local/Temp/_gbsbuild/obj/script_s32a18_interact.rel
                                          [ script_s32a18_interact ]
C:/Users/luisc/AppData/Local/Temp/_gbsbuild/obj/script_s32a18_update.rel
                                          [ script_s32a18_update ]
C:/Users/luisc/AppData/Local/Temp/_gbsbuild/obj/script_s32a19_interact.rel
                                          [ script_s32a19_interact ]
C:/Users/luisc/AppData/Local/Temp/_gbsbuild/obj/script_s32a2_interact.rel
                                          [ script_s32a2_interact ]
C:/Users/luisc/AppData/Local/Temp/_gbsbuild/obj/script_s32a2_update.rel
                                          [ script_s32a2_update ]
C:/Users/luisc/AppData/Local/Temp/_gbsbuild/obj/script_s32a5_interact.rel
                                          [ script_s32a5_interact ]
C:/Users/luisc/AppData/Local/Temp/_gbsbuild/obj/script_s32a5_update.rel
                                          [ script_s32a5_update ]
C:/Users/luisc/AppData/Local/Temp/_gbsbuild/obj/script_s32a6_interact.rel
                                          [ script_s32a6_interact ]
C:/Users/luisc/AppData/Local/Temp/_gbsbuild/obj/script_s32a6_update.rel
                                          [ script_s32a6_update ]
C:/Users/luisc/AppData/Local/Temp/_gbsbuild/obj/script_s32a7_interact.rel
                                          [ script_s32a7_interact ]
C:/Users/luisc/AppData/Local/Temp/_gbsbuild/obj/script_s32a7_update.rel
                                          [ script_s32a7_update ]
C:/Users/luisc/AppData/Local/Temp/_gbsbuild/obj/script_s32a8_interact.rel
                                          [ script_s32a8_interact ]
C:/Users/luisc/AppData/Local/Temp/_gbsbuild/obj/script_s32a8_update.rel
                                          [ script_s32a8_update ]
C:/Users/luisc/AppData/Local/Temp/_gbsbuild/obj/script_s32a9_interact.rel
                                          [ script_s32a9_interact ]
C:/Users/luisc/AppData/Local/Temp/_gbsbuild/obj/script_s32a9_update.rel
                                          [ script_s32a9_update ]
C:/Users/luisc/AppData/Local/Temp/_gbsbuild/obj/script_s32t0_interact.rel
                                          [ script_s32t0_interact ]
C:/Users/luisc/AppData/Local/Temp/_gbsbuild/obj/script_s32t1_interact.rel
                                          [ script_s32t1_interact ]
C:/Users/luisc/AppData/Local/Temp/_gbsbuild/obj/script_s32t2_interact.rel
                                          [ script_s32t2_interact ]
C:/Users/luisc/AppData/Local/Temp/_gbsbuild/obj/script_s33_init.rel
                                          [ script_s33_init ]
C:/Users/luisc/AppData/Local/Temp/_gbsbuild/obj/script_s34_init.rel
                                          [ script_s34_init ]
C:/Users/luisc/AppData/Local/Temp/_gbsbuild/obj/script_s34_p_hit1.rel
                                          [ script_s34_p_hit1 ]
C:/Users/luisc/AppData/Local/Temp/_gbsbuild/obj/script_s34a0_update.rel
                                          [ script_s34a0_update ]
C:/Users/luisc/AppData/Local/Temp/_gbsbuild/obj/script_s34a10_interact.rel
                                          [ script_s34a10_interact ]
C:/Users/luisc/AppData/Local/Temp/_gbsbuild/obj/script_s34a10_update.rel
                                          [ script_s34a10_update ]
C:/Users/luisc/AppData/Local/Temp/_gbsbuild/obj/script_s34a11_interact.rel
                                          [ script_s34a11_interact ]
C:/Users/luisc/AppData/Local/Temp/_gbsbuild/obj/script_s34a11_update.rel
                                          [ script_s34a11_update ]
C:/Users/luisc/AppData/Local/Temp/_gbsbuild/obj/script_s34a12_interact.rel
                                          [ script_s34a12_interact ]
C:/Users/luisc/AppData/Local/Temp/_gbsbuild/obj/script_s34a12_update.rel
                                          [ script_s34a12_update ]
C:/Users/luisc/AppData/Local/Temp/_gbsbuild/obj/script_s34a13_interact.rel
                                          [ script_s34a13_interact ]
C:/Users/luisc/AppData/Local/Temp/_gbsbuild/obj/script_s34a13_update.rel
                                          [ script_s34a13_update ]
C:/Users/luisc/AppData/Local/Temp/_gbsbuild/obj/script_s34a14_interact.rel
                                          [ script_s34a14_interact ]
C:/Users/luisc/AppData/Local/Temp/_gbsbuild/obj/script_s34a14_update.rel
                                          [ script_s34a14_update ]
C:/Users/luisc/AppData/Local/Temp/_gbsbuild/obj/script_s34a15_update.rel
                                          [ script_s34a15_update ]
C:/Users/luisc/AppData/Local/Temp/_gbsbuild/obj/script_s34a16_interact.rel
                                          [ script_s34a16_interact ]
C:/Users/luisc/AppData/Local/Temp/_gbsbuild/obj/script_s34a16_update.rel
                                          [ script_s34a16_update ]
C:/Users/luisc/AppData/Local/Temp/_gbsbuild/obj/script_s34a17_interact.rel
                                          [ script_s34a17_interact ]
C:/Users/luisc/AppData/Local/Temp/_gbsbuild/obj/script_s34a17_update.rel
                                          [ script_s34a17_update ]
C:/Users/luisc/AppData/Local/Temp/_gbsbuild/obj/script_s34a18_interact.rel
                                          [ script_s34a18_interact ]
C:/Users/luisc/AppData/Local/Temp/_gbsbuild/obj/script_s34a2_interact.rel
                                          [ script_s34a2_interact ]
C:/Users/luisc/AppData/Local/Temp/_gbsbuild/obj/script_s34a2_update.rel
                                          [ script_s34a2_update ]
C:/Users/luisc/AppData/Local/Temp/_gbsbuild/obj/script_s34a3_interact.rel
                                          [ script_s34a3_interact ]
C:/Users/luisc/AppData/Local/Temp/_gbsbuild/obj/script_s34a3_update.rel
                                          [ script_s34a3_update ]
C:/Users/luisc/AppData/Local/Temp/_gbsbuild/obj/script_s34a4_interact.rel
                                          [ script_s34a4_interact ]
C:/Users/luisc/AppData/Local/Temp/_gbsbuild/obj/script_s34a4_update.rel
                                          [ script_s34a4_update ]
C:/Users/luisc/AppData/Local/Temp/_gbsbuild/obj/script_s34a6_interact.rel
                                          [ script_s34a6_interact ]
C:/Users/luisc/AppData/Local/Temp/_gbsbuild/obj/script_s34a6_update.rel
                                          [ script_s34a6_update ]
C:/Users/luisc/AppData/Local/Temp/_gbsbuild/obj/script_s34a7_interact.rel
                                          [ script_s34a7_interact ]
C:/Users/luisc/AppData/Local/Temp/_gbsbuild/obj/script_s34a7_update.rel
                                          [ script_s34a7_update ]
C:/Users/luisc/AppData/Local/Temp/_gbsbuild/obj/script_s34a8_interact.rel
                                          [ script_s34a8_interact ]
C:/Users/luisc/AppData/Local/Temp/_gbsbuild/obj/script_s34a8_update.rel
                                          [ script_s34a8_update ]
C:/Users/luisc/AppData/Local/Temp/_gbsbuild/obj/script_s34a9_interact.rel
                                          [ script_s34a9_interact ]
C:/Users/luisc/AppData/Local/Temp/_gbsbuild/obj/script_s34a9_update.rel
                                          [ script_s34a9_update ]
C:/Users/luisc/AppData/Local/Temp/_gbsbuild/obj/script_s34t0_interact.rel
                                          [ script_s34t0_interact ]
C:/Users/luisc/AppData/Local/Temp/_gbsbuild/obj/script_s34t1_interact.rel
                                          [ script_s34t1_interact ]
C:/Users/luisc/AppData/Local/Temp/_gbsbuild/obj/script_s35_init.rel
                                          [ script_s35_init ]
C:/Users/luisc/AppData/Local/Temp/_gbsbuild/obj/script_s36_init.rel
                                          [ script_s36_init ]
C:/Users/luisc/AppData/Local/Temp/_gbsbuild/obj/script_s36_p_hit1.rel
                                          [ script_s36_p_hit1 ]
C:/Users/luisc/AppData/Local/Temp/_gbsbuild/obj/script_s36a0_interact.rel
                                          [ script_s36a0_interact ]
C:/Users/luisc/AppData/Local/Temp/_gbsbuild/obj/script_s36a0_update.rel
                                          [ script_s36a0_update ]
C:/Users/luisc/AppData/Local/Temp/_gbsbuild/obj/script_s36a2_update.rel
                                          [ script_s36a2_update ]
C:/Users/luisc/AppData/Local/Temp/_gbsbuild/obj/script_s36a4_interact.rel
                                          [ script_s36a4_interact ]
C:/Users/luisc/AppData/Local/Temp/_gbsbuild/obj/script_s36t0_interact.rel
                                          [ script_s36t0_interact ]
C:/Users/luisc/AppData/Local/Temp/_gbsbuild/obj/script_s37_init.rel
                                          [ script_s37_init ]
C:/Users/luisc/AppData/Local/Temp/_gbsbuild/obj/script_s38_init.rel
                                          [ script_s38_init ]
C:/Users/luisc/AppData/Local/Temp/_gbsbuild/obj/script_s39_init.rel
                                          [ script_s39_init ]
C:/Users/luisc/AppData/Local/Temp/_gbsbuild/obj/script_s39a0_update.rel
                                          [ script_s39a0_update ]
C:/Users/luisc/AppData/Local/Temp/_gbsbuild/obj/script_s3a0_update.rel
                                          [ script_s3a0_update ]
C:/Users/luisc/AppData/Local/Temp/_gbsbuild/obj/script_s4_init.rel
                                          [ script_s4_init ]
C:/Users/luisc/AppData/Local/Temp/_gbsbuild/obj/script_s40_init.rel
                                          [ script_s40_init ]
C:/Users/luisc/AppData/Local/Temp/_gbsbuild/obj/script_s41_init.rel
                                          [ script_s41_init ]
C:/Users/luisc/AppData/Local/Temp/_gbsbuild/obj/script_s42_init.rel
                                          [ script_s42_init ]
C:/Users/luisc/AppData/Local/Temp/_gbsbuild/obj/script_s43_init.rel
                                          [ script_s43_init ]
C:/Users/luisc/AppData/Local/Temp/_gbsbuild/obj/script_s43a6_update.rel
                                          [ script_s43a6_update ]
C:/Users/luisc/AppData/Local/Temp/_gbsbuild/obj/script_s44_init.rel
                                          [ script_s44_init ]
C:/Users/luisc/AppData/Local/Temp/_gbsbuild/obj/script_s44a1_update.rel
                                          [ script_s44a1_update ]
C:/Users/luisc/AppData/Local/Temp/_gbsbuild/obj/script_s45_init.rel
                                          [ script_s45_init ]
C:/Users/luisc/AppData/Local/Temp/_gbsbuild/obj/script_s5_init.rel
                                          [ script_s5_init ]
C:/Users/luisc/AppData/Local/Temp/_gbsbuild/obj/script_s6_init.rel
                                          [ script_s6_init ]
C:/Users/luisc/AppData/Local/Temp/_gbsbuild/obj/script_s6a0_update.rel
                                          [ script_s6a0_update ]
C:/Users/luisc/AppData/Local/Temp/_gbsbuild/obj/script_s7_init.rel
                                          [ script_s7_init ]
C:/Users/luisc/AppData/Local/Temp/_gbsbuild/obj/script_s8_init.rel
                                          [ script_s8_init ]
C:/Users/luisc/AppData/Local/Temp/_gbsbuild/obj/script_s8_p_hit1.rel
                                          [ script_s8_p_hit1 ]
C:/Users/luisc/AppData/Local/Temp/_gbsbuild/obj/script_s8a0_update.rel
                                          [ script_s8a0_update ]
C:/Users/luisc/AppData/Local/Temp/_gbsbuild/obj/script_s8a1_update.rel
                                          [ script_s8a1_update ]
C:/Users/luisc/AppData/Local/Temp/_gbsbuild/obj/script_s8a11_interact.rel
                                          [ script_s8a11_interact ]
C:/Users/luisc/AppData/Local/Temp/_gbsbuild/obj/script_s8a11_update.rel
                                          [ script_s8a11_update ]
C:/Users/luisc/AppData/Local/Temp/_gbsbuild/obj/script_s8a12_interact.rel
                                          [ script_s8a12_interact ]
C:/Users/luisc/AppData/Local/Temp/_gbsbuild/obj/script_s8a12_update.rel
                                          [ script_s8a12_update ]
C:/Users/luisc/AppData/Local/Temp/_gbsbuild/obj/script_s8a13_interact.rel
                                          [ script_s8a13_interact ]
C:/Users/luisc/AppData/Local/Temp/_gbsbuild/obj/script_s8a13_update.rel
                                          [ script_s8a13_update ]
C:/Users/luisc/AppData/Local/Temp/_gbsbuild/obj/script_s8a14_interact.rel
                                          [ script_s8a14_interact ]
C:/Users/luisc/AppData/Local/Temp/_gbsbuild/obj/script_s8a14_update.rel
                                          [ script_s8a14_update ]
C:/Users/luisc/AppData/Local/Temp/_gbsbuild/obj/script_s8a15_interact.rel
                                          [ script_s8a15_interact ]
C:/Users/luisc/AppData/Local/Temp/_gbsbuild/obj/script_s8a15_update.rel
                                          [ script_s8a15_update ]
C:/Users/luisc/AppData/Local/Temp/_gbsbuild/obj/script_s8a16_interact.rel
                                          [ script_s8a16_interact ]
C:/Users/luisc/AppData/Local/Temp/_gbsbuild/obj/script_s8a16_update.rel
                                          [ script_s8a16_update ]
C:/Users/luisc/AppData/Local/Temp/_gbsbuild/obj/script_s8a17_interact.rel
                                          [ script_s8a17_interact ]
C:/Users/luisc/AppData/Local/Temp/_gbsbuild/obj/script_s8a17_update.rel
                                          [ script_s8a17_update ]
C:/Users/luisc/AppData/Local/Temp/_gbsbuild/obj/script_s8a2_interact.rel
                                          [ script_s8a2_interact ]
C:/Users/luisc/AppData/Local/Temp/_gbsbuild/obj/script_s8a3_interact.rel
                                          [ script_s8a3_interact ]
C:/Users/luisc/AppData/Local/Temp/_gbsbuild/obj/script_s8a3_update.rel
                                          [ script_s8a3_update ]
C:/Users/luisc/AppData/Local/Temp/_gbsbuild/obj/script_s8a5_interact.rel
                                          [ script_s8a5_interact ]
C:/Users/luisc/AppData/Local/Temp/_gbsbuild/obj/script_s8a5_update.rel
                                          [ script_s8a5_update ]
C:/Users/luisc/AppData/Local/Temp/_gbsbuild/obj/script_s8a6_interact.rel
                                          [ script_s8a6_interact ]
C:/Users/luisc/AppData/Local/Temp/_gbsbuild/obj/script_s8a6_update.rel
                                          [ script_s8a6_update ]
C:/Users/luisc/AppData/Local/Temp/_gbsbuild/obj/script_s8a7_interact.rel
                                          [ script_s8a7_interact ]
C:/Users/luisc/AppData/Local/Temp/_gbsbuild/obj/script_s8a7_update.rel
                                          [ script_s8a7_update ]
C:/Users/luisc/AppData/Local/Temp/_gbsbuild/obj/script_s8a8_interact.rel
                                          [ script_s8a8_interact ]
C:/Users/luisc/AppData/Local/Temp/_gbsbuild/obj/script_s8a8_update.rel
                                          [ script_s8a8_update ]
C:/Users/luisc/AppData/Local/Temp/_gbsbuild/obj/script_s8a9_interact.rel
                                          [ script_s8a9_interact ]
C:/Users/luisc/AppData/Local/Temp/_gbsbuild/obj/script_s8a9_update.rel
                                          [ script_s8a9_update ]
C:/Users/luisc/AppData/Local/Temp/_gbsbuild/obj/script_s8t0_interact.rel
                                          [ script_s8t0_interact ]
C:/Users/luisc/AppData/Local/Temp/_gbsbuild/obj/script_s9_init.rel
                                          [ script_s9_init ]
C:/Users/luisc/AppData/Local/Temp/_gbsbuild/obj/spritesheet_0.rel
                                          [ spritesheet_0 ]
C:/Users/luisc/AppData/Local/Temp/_gbsbuild/obj/spritesheet_1.rel
                                          [ spritesheet_1 ]
C:/Users/luisc/AppData/Local/Temp/_gbsbuild/obj/spritesheet_10.rel
                                          [ spritesheet_10 ]
C:/Users/luisc/AppData/Local/Temp/_gbsbuild/obj/spritesheet_11.rel
                                          [ spritesheet_11 ]
C:/Users/luisc/AppData/Local/Temp/_gbsbuild/obj/spritesheet_12.rel
                                          [ spritesheet_12 ]
C:/Users/luisc/AppData/Local/Temp/_gbsbuild/obj/spritesheet_13.rel
                                          [ spritesheet_13 ]
C:/Users/luisc/AppData/Local/Temp/_gbsbuild/obj/spritesheet_14.rel
                                          [ spritesheet_14 ]
C:/Users/luisc/AppData/Local/Temp/_gbsbuild/obj/spritesheet_15.rel
                                          [ spritesheet_15 ]
C:/Users/luisc/AppData/Local/Temp/_gbsbuild/obj/spritesheet_16.rel
                                          [ spritesheet_16 ]
C:/Users/luisc/AppData/Local/Temp/_gbsbuild/obj/spritesheet_17.rel
                                          [ spritesheet_17 ]
C:/Users/luisc/AppData/Local/Temp/_gbsbuild/obj/spritesheet_18.rel
                                          [ spritesheet_18 ]
C:/Users/luisc/AppData/Local/Temp/_gbsbuild/obj/spritesheet_19.rel
                                          [ spritesheet_19 ]
C:/Users/luisc/AppData/Local/Temp/_gbsbuild/obj/spritesheet_2.rel
                                          [ spritesheet_2 ]
C:/Users/luisc/AppData/Local/Temp/_gbsbuild/obj/spritesheet_20.rel
                                          [ spritesheet_20 ]
C:/Users/luisc/AppData/Local/Temp/_gbsbuild/obj/spritesheet_21.rel
                                          [ spritesheet_21 ]
C:/Users/luisc/AppData/Local/Temp/_gbsbuild/obj/spritesheet_22.rel
                                          [ spritesheet_22 ]
C:/Users/luisc/AppData/Local/Temp/_gbsbuild/obj/spritesheet_23.rel
                                          [ spritesheet_23 ]
C:/Users/luisc/AppData/Local/Temp/_gbsbuild/obj/spritesheet_24.rel
                                          [ spritesheet_24 ]
C:/Users/luisc/AppData/Local/Temp/_gbsbuild/obj/spritesheet_25.rel
                                          [ spritesheet_25 ]
C:/Users/luisc/AppData/Local/Temp/_gbsbuild/obj/spritesheet_26.rel
                                          [ spritesheet_26 ]
C:/Users/luisc/AppData/Local/Temp/_gbsbuild/obj/spritesheet_27.rel
                                          [ spritesheet_27 ]
C:/Users/luisc/AppData/Local/Temp/_gbsbuild/obj/spritesheet_28.rel
                                          [ spritesheet_28 ]
C:/Users/luisc/AppData/Local/Temp/_gbsbuild/obj/spritesheet_29.rel
                                          [ spritesheet_29 ]
C:/Users/luisc/AppData/Local/Temp/_gbsbuild/obj/spritesheet_3.rel
                                          [ spritesheet_3 ]
C:/Users/luisc/AppData/Local/Temp/_gbsbuild/obj/spritesheet_30.rel
                                          [ spritesheet_30 ]
C:/Users/luisc/AppData/Local/Temp/_gbsbuild/obj/spritesheet_31.rel
                                          [ spritesheet_31 ]
C:/Users/luisc/AppData/Local/Temp/_gbsbuild/obj/spritesheet_32.rel
                                          [ spritesheet_32 ]
C:/Users/luisc/AppData/Local/Temp/_gbsbuild/obj/spritesheet_33.rel
                                          [ spritesheet_33 ]
C:/Users/luisc/AppData/Local/Temp/_gbsbuild/obj/spritesheet_34.rel
                                          [ spritesheet_34 ]
C:/Users/luisc/AppData/Local/Temp/_gbsbuild/obj/spritesheet_35.rel
                                          [ spritesheet_35 ]
C:/Users/luisc/AppData/Local/Temp/_gbsbuild/obj/spritesheet_36.rel
                                          [ spritesheet_36 ]
C:/Users/luisc/AppData/Local/Temp/_gbsbuild/obj/spritesheet_37.rel
                                          [ spritesheet_37 ]
C:/Users/luisc/AppData/Local/Temp/_gbsbuild/obj/spritesheet_38.rel
                                          [ spritesheet_38 ]
C:/Users/luisc/AppData/Local/Temp/_gbsbuild/obj/spritesheet_39.rel
                                          [ spritesheet_39 ]
C:/Users/luisc/AppData/Local/Temp/_gbsbuild/obj/spritesheet_4.rel
                                          [ spritesheet_4 ]
C:/Users/luisc/AppData/Local/Temp/_gbsbuild/obj/spritesheet_40.rel
                                          [ spritesheet_40 ]
C:/Users/luisc/AppData/Local/Temp/_gbsbuild/obj/spritesheet_41.rel
                                          [ spritesheet_41 ]
C:/Users/luisc/AppData/Local/Temp/_gbsbuild/obj/spritesheet_42.rel
                                          [ spritesheet_42 ]
C:/Users/luisc/AppData/Local/Temp/_gbsbuild/obj/spritesheet_43.rel
                                          [ spritesheet_43 ]
C:/Users/luisc/AppData/Local/Temp/_gbsbuild/obj/spritesheet_44.rel
                                          [ spritesheet_44 ]
C:/Users/luisc/AppData/Local/Temp/_gbsbuild/obj/spritesheet_45.rel
                                          [ spritesheet_45 ]
C:/Users/luisc/AppData/Local/Temp/_gbsbuild/obj/spritesheet_46.rel
                                          [ spritesheet_46 ]
C:/Users/luisc/AppData/Local/Temp/_gbsbuild/obj/spritesheet_47.rel
                                          [ spritesheet_47 ]
C:/Users/luisc/AppData/Local/Temp/_gbsbuild/obj/spritesheet_48.rel
                                          [ spritesheet_48 ]
C:/Users/luisc/AppData/Local/Temp/_gbsbuild/obj/spritesheet_49.rel
                                          [ spritesheet_49 ]
C:/Users/luisc/AppData/Local/Temp/_gbsbuild/obj/spritesheet_5.rel
                                          [ spritesheet_5 ]
C:/Users/luisc/AppData/Local/Temp/_gbsbuild/obj/spritesheet_50.rel
                                          [ spritesheet_50 ]
C:/Users/luisc/AppData/Local/Temp/_gbsbuild/obj/spritesheet_51.rel
                                          [ spritesheet_51 ]
C:/Users/luisc/AppData/Local/Temp/_gbsbuild/obj/spritesheet_52.rel
                                          [ spritesheet_52 ]
C:/Users/luisc/AppData/Local/Temp/_gbsbuild/obj/spritesheet_53.rel
                                          [ spritesheet_53 ]
C:/Users/luisc/AppData/Local/Temp/_gbsbuild/obj/spritesheet_54.rel
                                          [ spritesheet_54 ]
C:/Users/luisc/AppData/Local/Temp/_gbsbuild/obj/spritesheet_55.rel
                                          [ spritesheet_55 ]
C:/Users/luisc/AppData/Local/Temp/_gbsbuild/obj/spritesheet_56.rel
                                          [ spritesheet_56 ]
C:/Users/luisc/AppData/Local/Temp/_gbsbuild/obj/spritesheet_57.rel
                                          [ spritesheet_57 ]
C:/Users/luisc/AppData/Local/Temp/_gbsbuild/obj/spritesheet_58.rel
                                          [ spritesheet_58 ]
C:/Users/luisc/AppData/Local/Temp/_gbsbuild/obj/spritesheet_59.rel
                                          [ spritesheet_59 ]
C:/Users/luisc/AppData/Local/Temp/_gbsbuild/obj/spritesheet_6.rel
                                          [ spritesheet_6 ]
C:/Users/luisc/AppData/Local/Temp/_gbsbuild/obj/spritesheet_60.rel
                                          [ spritesheet_60 ]
C:/Users/luisc/AppData/Local/Temp/_gbsbuild/obj/spritesheet_61.rel
                                          [ spritesheet_61 ]
C:/Users/luisc/AppData/Local/Temp/_gbsbuild/obj/spritesheet_7.rel
                                          [ spritesheet_7 ]
C:/Users/luisc/AppData/Local/Temp/_gbsbuild/obj/spritesheet_8.rel
                                          [ spritesheet_8 ]
C:/Users/luisc/AppData/Local/Temp/_gbsbuild/obj/spritesheet_9.rel
                                          [ spritesheet_9 ]
C:/Users/luisc/AppData/Local/Temp/_gbsbuild/obj/spritesheet_none.rel
                                          [ spritesheet_none ]
C:/Users/luisc/AppData/Local/Temp/_gbsbuild/obj/tilemap_0.rel
                                          [ tilemap_0 ]
C:/Users/luisc/AppData/Local/Temp/_gbsbuild/obj/tilemap_1.rel
                                          [ tilemap_1 ]
C:/Users/luisc/AppData/Local/Temp/_gbsbuild/obj/tilemap_10.rel
                                          [ tilemap_10 ]
C:/Users/luisc/AppData/Local/Temp/_gbsbuild/obj/tilemap_11.rel
                                          [ tilemap_11 ]
C:/Users/luisc/AppData/Local/Temp/_gbsbuild/obj/tilemap_12.rel
                                          [ tilemap_12 ]
C:/Users/luisc/AppData/Local/Temp/_gbsbuild/obj/tilemap_13.rel
                                          [ tilemap_13 ]
C:/Users/luisc/AppData/Local/Temp/_gbsbuild/obj/tilemap_14.rel
                                          [ tilemap_14 ]
C:/Users/luisc/AppData/Local/Temp/_gbsbuild/obj/tilemap_15.rel
                                          [ tilemap_15 ]
C:/Users/luisc/AppData/Local/Temp/_gbsbuild/obj/tilemap_16.rel
                                          [ tilemap_16 ]
C:/Users/luisc/AppData/Local/Temp/_gbsbuild/obj/tilemap_17.rel
                                          [ tilemap_17 ]
C:/Users/luisc/AppData/Local/Temp/_gbsbuild/obj/tilemap_18.rel
                                          [ tilemap_18 ]
C:/Users/luisc/AppData/Local/Temp/_gbsbuild/obj/tilemap_19.rel
                                          [ tilemap_19 ]
C:/Users/luisc/AppData/Local/Temp/_gbsbuild/obj/tilemap_2.rel
                                          [ tilemap_2 ]
C:/Users/luisc/AppData/Local/Temp/_gbsbuild/obj/tilemap_20.rel
                                          [ tilemap_20 ]
C:/Users/luisc/AppData/Local/Temp/_gbsbuild/obj/tilemap_21.rel
                                          [ tilemap_21 ]
C:/Users/luisc/AppData/Local/Temp/_gbsbuild/obj/tilemap_22.rel
                                          [ tilemap_22 ]
C:/Users/luisc/AppData/Local/Temp/_gbsbuild/obj/tilemap_23.rel
                                          [ tilemap_23 ]
C:/Users/luisc/AppData/Local/Temp/_gbsbuild/obj/tilemap_24.rel
                                          [ tilemap_24 ]
C:/Users/luisc/AppData/Local/Temp/_gbsbuild/obj/tilemap_25.rel
                                          [ tilemap_25 ]
C:/Users/luisc/AppData/Local/Temp/_gbsbuild/obj/tilemap_26.rel
                                          [ tilemap_26 ]
C:/Users/luisc/AppData/Local/Temp/_gbsbuild/obj/tilemap_27.rel
                                          [ tilemap_27 ]
C:/Users/luisc/AppData/Local/Temp/_gbsbuild/obj/tilemap_28.rel
                                          [ tilemap_28 ]
C:/Users/luisc/AppData/Local/Temp/_gbsbuild/obj/tilemap_29.rel
                                          [ tilemap_29 ]
C:/Users/luisc/AppData/Local/Temp/_gbsbuild/obj/tilemap_3.rel
                                          [ tilemap_3 ]
C:/Users/luisc/AppData/Local/Temp/_gbsbuild/obj/tilemap_30.rel
                                          [ tilemap_30 ]
C:/Users/luisc/AppData/Local/Temp/_gbsbuild/obj/tilemap_31.rel
                                          [ tilemap_31 ]
C:/Users/luisc/AppData/Local/Temp/_gbsbuild/obj/tilemap_32.rel
                                          [ tilemap_32 ]
C:/Users/luisc/AppData/Local/Temp/_gbsbuild/obj/tilemap_33.rel
                                          [ tilemap_33 ]
C:/Users/luisc/AppData/Local/Temp/_gbsbuild/obj/tilemap_34.rel
                                          [ tilemap_34 ]
C:/Users/luisc/AppData/Local/Temp/_gbsbuild/obj/tilemap_35.rel
                                          [ tilemap_35 ]
C:/Users/luisc/AppData/Local/Temp/_gbsbuild/obj/tilemap_36.rel
                                          [ tilemap_36 ]
C:/Users/luisc/AppData/Local/Temp/_gbsbuild/obj/tilemap_37.rel
                                          [ tilemap_37 ]
C:/Users/luisc/AppData/Local/Temp/_gbsbuild/obj/tilemap_38.rel
                                          [ tilemap_38 ]
C:/Users/luisc/AppData/Local/Temp/_gbsbuild/obj/tilemap_39.rel
                                          [ tilemap_39 ]
C:/Users/luisc/AppData/Local/Temp/_gbsbuild/obj/tilemap_4.rel
                                          [ tilemap_4 ]
C:/Users/luisc/AppData/Local/Temp/_gbsbuild/obj/tilemap_40.rel
                                          [ tilemap_40 ]
C:/Users/luisc/AppData/Local/Temp/_gbsbuild/obj/tilemap_41.rel
                                          [ tilemap_41 ]
C:/Users/luisc/AppData/Local/Temp/_gbsbuild/obj/tilemap_42.rel
                                          [ tilemap_42 ]
C:/Users/luisc/AppData/Local/Temp/_gbsbuild/obj/tilemap_43.rel
                                          [ tilemap_43 ]
C:/Users/luisc/AppData/Local/Temp/_gbsbuild/obj/tilemap_5.rel
                                          [ tilemap_5 ]
C:/Users/luisc/AppData/Local/Temp/_gbsbuild/obj/tilemap_6.rel
                                          [ tilemap_6 ]
C:/Users/luisc/AppData/Local/Temp/_gbsbuild/obj/tilemap_7.rel
                                          [ tilemap_7 ]
C:/Users/luisc/AppData/Local/Temp/_gbsbuild/obj/tilemap_8.rel
                                          [ tilemap_8 ]
C:/Users/luisc/AppData/Local/Temp/_gbsbuild/obj/tilemap_9.rel
                                          [ tilemap_9 ]
C:/Users/luisc/AppData/Local/Temp/_gbsbuild/obj/tilemap_attr_0.rel
                                          [ tilemap_attr_0 ]
C:/Users/luisc/AppData/Local/Temp/_gbsbuild/obj/tilemap_attr_1.rel
                                          [ tilemap_attr_1 ]
C:/Users/luisc/AppData/Local/Temp/_gbsbuild/obj/tilemap_attr_10.rel
                                          [ tilemap_attr_10 ]
C:/Users/luisc/AppData/Local/Temp/_gbsbuild/obj/tilemap_attr_11.rel
                                          [ tilemap_attr_11 ]
C:/Users/luisc/AppData/Local/Temp/_gbsbuild/obj/tilemap_attr_12.rel
                                          [ tilemap_attr_12 ]
C:/Users/luisc/AppData/Local/Temp/_gbsbuild/obj/tilemap_attr_13.rel
                                          [ tilemap_attr_13 ]
C:/Users/luisc/AppData/Local/Temp/_gbsbuild/obj/tilemap_attr_14.rel
                                          [ tilemap_attr_14 ]
C:/Users/luisc/AppData/Local/Temp/_gbsbuild/obj/tilemap_attr_15.rel
                                          [ tilemap_attr_15 ]
C:/Users/luisc/AppData/Local/Temp/_gbsbuild/obj/tilemap_attr_16.rel
                                          [ tilemap_attr_16 ]
C:/Users/luisc/AppData/Local/Temp/_gbsbuild/obj/tilemap_attr_17.rel
                                          [ tilemap_attr_17 ]
C:/Users/luisc/AppData/Local/Temp/_gbsbuild/obj/tilemap_attr_18.rel
                                          [ tilemap_attr_18 ]
C:/Users/luisc/AppData/Local/Temp/_gbsbuild/obj/tilemap_attr_19.rel
                                          [ tilemap_attr_19 ]
C:/Users/luisc/AppData/Local/Temp/_gbsbuild/obj/tilemap_attr_2.rel
                                          [ tilemap_attr_2 ]
C:/Users/luisc/AppData/Local/Temp/_gbsbuild/obj/tilemap_attr_20.rel
                                          [ tilemap_attr_20 ]
C:/Users/luisc/AppData/Local/Temp/_gbsbuild/obj/tilemap_attr_21.rel
                                          [ tilemap_attr_21 ]
C:/Users/luisc/AppData/Local/Temp/_gbsbuild/obj/tilemap_attr_22.rel
                                          [ tilemap_attr_22 ]
C:/Users/luisc/AppData/Local/Temp/_gbsbuild/obj/tilemap_attr_23.rel
                                          [ tilemap_attr_23 ]
C:/Users/luisc/AppData/Local/Temp/_gbsbuild/obj/tilemap_attr_24.rel
                                          [ tilemap_attr_24 ]
C:/Users/luisc/AppData/Local/Temp/_gbsbuild/obj/tilemap_attr_25.rel
                                          [ tilemap_attr_25 ]
C:/Users/luisc/AppData/Local/Temp/_gbsbuild/obj/tilemap_attr_3.rel
                                          [ tilemap_attr_3 ]
C:/Users/luisc/AppData/Local/Temp/_gbsbuild/obj/tilemap_attr_4.rel
                                          [ tilemap_attr_4 ]
C:/Users/luisc/AppData/Local/Temp/_gbsbuild/obj/tilemap_attr_5.rel
                                          [ tilemap_attr_5 ]
C:/Users/luisc/AppData/Local/Temp/_gbsbuild/obj/tilemap_attr_6.rel
                                          [ tilemap_attr_6 ]
C:/Users/luisc/AppData/Local/Temp/_gbsbuild/obj/tilemap_attr_7.rel
                                          [ tilemap_attr_7 ]
C:/Users/luisc/AppData/Local/Temp/_gbsbuild/obj/tilemap_attr_8.rel
                                          [ tilemap_attr_8 ]
C:/Users/luisc/AppData/Local/Temp/_gbsbuild/obj/tilemap_attr_9.rel
                                          [ tilemap_attr_9 ]
C:/Users/luisc/AppData/Local/Temp/_gbsbuild/obj/tileset_0.rel
                                          [ tileset_0 ]
C:/Users/luisc/AppData/Local/Temp/_gbsbuild/obj/tileset_1.rel
                                          [ tileset_1 ]
C:/Users/luisc/AppData/Local/Temp/_gbsbuild/obj/tileset_10.rel
                                          [ tileset_10 ]
C:/Users/luisc/AppData/Local/Temp/_gbsbuild/obj/tileset_11.rel
                                          [ tileset_11 ]
C:/Users/luisc/AppData/Local/Temp/_gbsbuild/obj/tileset_12.rel
                                          [ tileset_12 ]
C:/Users/luisc/AppData/Local/Temp/_gbsbuild/obj/tileset_13.rel
                                          [ tileset_13 ]
C:/Users/luisc/AppData/Local/Temp/_gbsbuild/obj/tileset_14.rel
                                          [ tileset_14 ]
C:/Users/luisc/AppData/Local/Temp/_gbsbuild/obj/tileset_15.rel
                                          [ tileset_15 ]
C:/Users/luisc/AppData/Local/Temp/_gbsbuild/obj/tileset_16.rel
                                          [ tileset_16 ]
C:/Users/luisc/AppData/Local/Temp/_gbsbuild/obj/tileset_17.rel
                                          [ tileset_17 ]
C:/Users/luisc/AppData/Local/Temp/_gbsbuild/obj/tileset_18.rel
                                          [ tileset_18 ]
C:/Users/luisc/AppData/Local/Temp/_gbsbuild/obj/tileset_19.rel
                                          [ tileset_19 ]
C:/Users/luisc/AppData/Local/Temp/_gbsbuild/obj/tileset_2.rel
                                          [ tileset_2 ]
C:/Users/luisc/AppData/Local/Temp/_gbsbuild/obj/tileset_20.rel
                                          [ tileset_20 ]
C:/Users/luisc/AppData/Local/Temp/_gbsbuild/obj/tileset_21.rel
                                          [ tileset_21 ]
C:/Users/luisc/AppData/Local/Temp/_gbsbuild/obj/tileset_22.rel
                                          [ tileset_22 ]
C:/Users/luisc/AppData/Local/Temp/_gbsbuild/obj/tileset_23.rel
                                          [ tileset_23 ]
C:/Users/luisc/AppData/Local/Temp/_gbsbuild/obj/tileset_24.rel
                                          [ tileset_24 ]
C:/Users/luisc/AppData/Local/Temp/_gbsbuild/obj/tileset_25.rel
                                          [ tileset_25 ]
C:/Users/luisc/AppData/Local/Temp/_gbsbuild/obj/tileset_26.rel
                                          [ tileset_26 ]
C:/Users/luisc/AppData/Local/Temp/_gbsbuild/obj/tileset_27.rel
                                          [ tileset_27 ]
C:/Users/luisc/AppData/Local/Temp/_gbsbuild/obj/tileset_28.rel
                                          [ tileset_28 ]
C:/Users/luisc/AppData/Local/Temp/_gbsbuild/obj/tileset_29.rel
                                          [ tileset_29 ]
C:/Users/luisc/AppData/Local/Temp/_gbsbuild/obj/tileset_3.rel
                                          [ tileset_3 ]
C:/Users/luisc/AppData/Local/Temp/_gbsbuild/obj/tileset_30.rel
                                          [ tileset_30 ]
C:/Users/luisc/AppData/Local/Temp/_gbsbuild/obj/tileset_31.rel
                                          [ tileset_31 ]
C:/Users/luisc/AppData/Local/Temp/_gbsbuild/obj/tileset_32.rel
                                          [ tileset_32 ]
C:/Users/luisc/AppData/Local/Temp/_gbsbuild/obj/tileset_33.rel
                                          [ tileset_33 ]
C:/Users/luisc/AppData/Local/Temp/_gbsbuild/obj/tileset_34.rel
                                          [ tileset_34 ]
C:/Users/luisc/AppData/Local/Temp/_gbsbuild/obj/tileset_35.rel
                                          [ tileset_35 ]
C:/Users/luisc/AppData/Local/Temp/_gbsbuild/obj/tileset_36.rel
                                          [ tileset_36 ]
C:/Users/luisc/AppData/Local/Temp/_gbsbuild/obj/tileset_37.rel
                                          [ tileset_37 ]
C:/Users/luisc/AppData/Local/Temp/_gbsbuild/obj/tileset_38.rel
                                          [ tileset_38 ]
C:/Users/luisc/AppData/Local/Temp/_gbsbuild/obj/tileset_39.rel
                                          [ tileset_39 ]
C:/Users/luisc/AppData/Local/Temp/_gbsbuild/obj/tileset_4.rel
                                          [ tileset_4 ]
C:/Users/luisc/AppData/Local/Temp/_gbsbuild/obj/tileset_40.rel
                                          [ tileset_40 ]
C:/Users/luisc/AppData/Local/Temp/_gbsbuild/obj/tileset_41.rel
                                          [ tileset_41 ]
C:/Users/luisc/AppData/Local/Temp/_gbsbuild/obj/tileset_42.rel
                                          [ tileset_42 ]
C:/Users/luisc/AppData/Local/Temp/_gbsbuild/obj/tileset_43.rel
                                          [ tileset_43 ]
C:/Users/luisc/AppData/Local/Temp/_gbsbuild/obj/tileset_44.rel
                                          [ tileset_44 ]
C:/Users/luisc/AppData/Local/Temp/_gbsbuild/obj/tileset_45.rel
                                          [ tileset_45 ]
C:/Users/luisc/AppData/Local/Temp/_gbsbuild/obj/tileset_46.rel
                                          [ tileset_46 ]
C:/Users/luisc/AppData/Local/Temp/_gbsbuild/obj/tileset_47.rel
                                          [ tileset_47 ]
C:/Users/luisc/AppData/Local/Temp/_gbsbuild/obj/tileset_48.rel
                                          [ tileset_48 ]
C:/Users/luisc/AppData/Local/Temp/_gbsbuild/obj/tileset_49.rel
                                          [ tileset_49 ]
C:/Users/luisc/AppData/Local/Temp/_gbsbuild/obj/tileset_5.rel
                                          [ tileset_5 ]
C:/Users/luisc/AppData/Local/Temp/_gbsbuild/obj/tileset_50.rel
                                          [ tileset_50 ]
C:/Users/luisc/AppData/Local/Temp/_gbsbuild/obj/tileset_51.rel
                                          [ tileset_51 ]
C:/Users/luisc/AppData/Local/Temp/_gbsbuild/obj/tileset_52.rel
                                          [ tileset_52 ]
C:/Users/luisc/AppData/Local/Temp/_gbsbuild/obj/tileset_53.rel
                                          [ tileset_53 ]
C:/Users/luisc/AppData/Local/Temp/_gbsbuild/obj/tileset_54.rel
                                          [ tileset_54 ]
C:/Users/luisc/AppData/Local/Temp/_gbsbuild/obj/tileset_55.rel
                                          [ tileset_55 ]
C:/Users/luisc/AppData/Local/Temp/_gbsbuild/obj/tileset_56.rel
                                          [ tileset_56 ]
C:/Users/luisc/AppData/Local/Temp/_gbsbuild/obj/tileset_57.rel
                                          [ tileset_57 ]
C:/Users/luisc/AppData/Local/Temp/_gbsbuild/obj/tileset_58.rel
                                          [ tileset_58 ]
C:/Users/luisc/AppData/Local/Temp/_gbsbuild/obj/tileset_59.rel
                                          [ tileset_59 ]
C:/Users/luisc/AppData/Local/Temp/_gbsbuild/obj/tileset_6.rel
                                          [ tileset_6 ]
C:/Users/luisc/AppData/Local/Temp/_gbsbuild/obj/tileset_60.rel
                                          [ tileset_60 ]
C:/Users/luisc/AppData/Local/Temp/_gbsbuild/obj/tileset_61.rel
                                          [ tileset_61 ]
C:/Users/luisc/AppData/Local/Temp/_gbsbuild/obj/tileset_62.rel
                                          [ tileset_62 ]
C:/Users/luisc/AppData/Local/Temp/_gbsbuild/obj/tileset_63.rel
                                          [ tileset_63 ]
C:/Users/luisc/AppData/Local/Temp/_gbsbuild/obj/tileset_64.rel
                                          [ tileset_64 ]
C:/Users/luisc/AppData/Local/Temp/_gbsbuild/obj/tileset_65.rel
                                          [ tileset_65 ]
C:/Users/luisc/AppData/Local/Temp/_gbsbuild/obj/tileset_66.rel
                                          [ tileset_66 ]
C:/Users/luisc/AppData/Local/Temp/_gbsbuild/obj/tileset_67.rel
                                          [ tileset_67 ]
C:/Users/luisc/AppData/Local/Temp/_gbsbuild/obj/tileset_68.rel
                                          [ tileset_68 ]
C:/Users/luisc/AppData/Local/Temp/_gbsbuild/obj/tileset_69.rel
                                          [ tileset_69 ]
C:/Users/luisc/AppData/Local/Temp/_gbsbuild/obj/tileset_7.rel
                                          [ tileset_7 ]
C:/Users/luisc/AppData/Local/Temp/_gbsbuild/obj/tileset_70.rel
                                          [ tileset_70 ]
C:/Users/luisc/AppData/Local/Temp/_gbsbuild/obj/tileset_71.rel
                                          [ tileset_71 ]
C:/Users/luisc/AppData/Local/Temp/_gbsbuild/obj/tileset_72.rel
                                          [ tileset_72 ]
C:/Users/luisc/AppData/Local/Temp/_gbsbuild/obj/tileset_73.rel
                                          [ tileset_73 ]
C:/Users/luisc/AppData/Local/Temp/_gbsbuild/obj/tileset_74.rel
                                          [ tileset_74 ]
C:/Users/luisc/AppData/Local/Temp/_gbsbuild/obj/tileset_75.rel
                                          [ tileset_75 ]
C:/Users/luisc/AppData/Local/Temp/_gbsbuild/obj/tileset_8.rel
                                          [ tileset_8 ]
C:/Users/luisc/AppData/Local/Temp/_gbsbuild/obj/tileset_9.rel
                                          [ tileset_9 ]
C:/Users/luisc/AppData/Local/Temp/_gbsbuild/obj/main.rel
                                          [ main ]
C:/Users/luisc/AppData/Local/Temp/_gbsbuild/obj/miau.rel
                                          [ miau ]
C:/Users/luisc/AppData/Local/Temp/_gbsbuild/obj/adventure.rel
                                          [ adventure ]
C:/Users/luisc/AppData/Local/Temp/_gbsbuild/obj/logo.rel
                                          [ logo ]
C:/Users/luisc/AppData/Local/Temp/_gbsbuild/obj/platform.rel
                                          [ platform ]
C:/Users/luisc/AppData/Local/Temp/_gbsbuild/obj/pointnclick.rel
                                          [ pointnclick ]
C:/Users/luisc/AppData/Local/Temp/_gbsbuild/obj/shmup.rel
                                          [ shmup ]
C:/Users/luisc/AppData/Local/Temp/_gbsbuild/obj/states_ptrs.rel
                                          [  ]
C:/Users/luisc/AppData/Local/Temp/_gbsbuild/obj/topdown.rel
                                          [ topdown ]


Libraries Linked                          [ object file ]

C:\Users\luisc\AppData\Local\Temp/_gbstools/gbdk/lib/small/asxxxx/gb/gb.lib
                                          [ fill_rect_wi.o ]
lib/gbt_player.lib                        [ gbt_player.o ]
C:\Users\luisc\AppData\Local\Temp/_gbstools/gbdk/lib/small/asxxxx/gb/gb.lib
                                          [ sfr.o ]
C:\Users\luisc\AppData\Local\Temp/_gbstools/gbdk/lib/small/asxxxx/gbz80/gbz80.lib
                                          [ rand.o ]
lib/gbt_player.lib                        [ gbt_player_bank1.o ]
C:\Users\luisc\AppData\Local\Temp/_gbstools/gbdk/lib/small/asxxxx/gb/gb.lib
                                          [ cgb_palettes.o ]
C:\Users\luisc\AppData\Local\Temp/_gbstools/gbdk/lib/small/asxxxx/gbz80/gbz80.lib
                                          [ mul.o ]
C:\Users\luisc\AppData\Local\Temp/_gbstools/gbdk/lib/small/asxxxx/gbz80/gbz80.lib
                                          [ abs.o ]
C:\Users\luisc\AppData\Local\Temp/_gbstools/gbdk/lib/small/asxxxx/gb/gb.lib
                                          [ set_wi_t.o ]
C:\Users\luisc\AppData\Local\Temp/_gbstools/gbdk/lib/small/asxxxx/gb/gb.lib
                                          [ set_data.o ]
C:\Users\luisc\AppData\Local\Temp/_gbstools/gbdk/lib/small/asxxxx/gbz80/gbz80.lib
                                          [ reverse.o ]
C:\Users\luisc\AppData\Local\Temp/_gbstools/gbdk/lib/small/asxxxx/gb/gb.lib
                                          [ far_ptr.o ]
C:\Users\luisc\AppData\Local\Temp/_gbstools/gbdk/lib/small/asxxxx/gb/gb.lib
                                          [ sgb.o ]
C:\Users\luisc\AppData\Local\Temp/_gbstools/gbdk/lib/small/asxxxx/gb/gb.lib
                                          [ lcd.o ]
C:\Users\luisc\AppData\Local\Temp/_gbstools/gbdk/lib/small/asxxxx/gb/gb.lib
                                          [ fill_rect.o ]
C:\Users\luisc\AppData\Local\Temp/_gbstools/gbdk/lib/small/asxxxx/gb/gb.lib
                                          [ cpy_data.o ]
C:\Users\luisc\AppData\Local\Temp/_gbstools/gbdk/lib/small/asxxxx/gb/gb.lib
                                          [ fill_rect_bk.o ]
C:\Users\luisc\AppData\Local\Temp/_gbstools/gbdk/lib/small/asxxxx/gb/gb.lib
                                          [ pad.o ]
C:\Users\luisc\AppData\Local\Temp/_gbstools/gbdk/lib/small/asxxxx/gb/gb.lib
                                          [ metasprites.o ]
C:\Users\luisc\AppData\Local\Temp/_gbstools/gbdk/lib/small/asxxxx/gbz80/gbz80.lib
                                          [ __sdcc_call_hl.o ]
C:\Users\luisc\AppData\Local\Temp/_gbstools/gbdk/lib/small/asxxxx/gbz80/gbz80.lib
                                          [ _memcpy.o ]
C:\Users\luisc\AppData\Local\Temp/_gbstools/gbdk/lib/small/asxxxx/gbz80/gbz80.lib
                                          [ _memset.o ]
C:\Users\luisc\AppData\Local\Temp/_gbstools/gbdk/lib/small/asxxxx/gb/gb.lib
                                          [ ___sdcc_bcall_ehl.o ]
C:\Users\luisc\AppData\Local\Temp/_gbstools/gbdk/lib/small/asxxxx/gb/gb.lib
                                          [ cgb.o ]
C:\Users\luisc\AppData\Local\Temp/_gbstools/gbdk/lib/small/asxxxx/gbz80/gbz80.lib
                                          [ div.o ]
C:\Users\luisc\AppData\Local\Temp/_gbstools/gbdk/lib/small/asxxxx/gb/gb.lib
                                          [ set_bk_t.o ]
C:\Users\luisc\AppData\Local\Temp/_gbstools/gbdk/lib/small/asxxxx/gb/gb.lib
                                          [ set_xy_t.o ]

ASxxxx Linker V03.00 + NoICE + sdld,  page 123.

User Base Address Definitions

_DATA=0xC0A0
_CODE=0x0200
ASxxxx Linker V03.00 + NoICE + sdld,  page 124.

User Global Definitions

.STACK=0xDF00
_shadow_OAM=0xC000
.refresh_OAM=0xFF80
__start_save=28

